
main.elf:     file format elf64-x86-64


Disassembly of section .init:

0000000000001000 <_init>:
    1000:	f3 0f 1e fa          	endbr64
    1004:	48 83 ec 08          	sub    rsp,0x8
    1008:	48 8b 05 e1 4f 00 00 	mov    rax,QWORD PTR [rip+0x4fe1]        # 5ff0 <__gmon_start__@Base>
    100f:	48 85 c0             	test   rax,rax
    1012:	74 02                	je     1016 <_init+0x16>
    1014:	ff d0                	call   rax
    1016:	48 83 c4 08          	add    rsp,0x8
    101a:	c3                   	ret

Disassembly of section .plt:

0000000000001020 <.plt>:
    1020:	ff 35 42 4f 00 00    	push   QWORD PTR [rip+0x4f42]        # 5f68 <_GLOBAL_OFFSET_TABLE_+0x8>
    1026:	ff 25 44 4f 00 00    	jmp    QWORD PTR [rip+0x4f44]        # 5f70 <_GLOBAL_OFFSET_TABLE_+0x10>
    102c:	0f 1f 40 00          	nop    DWORD PTR [rax+0x0]
    1030:	f3 0f 1e fa          	endbr64
    1034:	68 00 00 00 00       	push   0x0
    1039:	e9 e2 ff ff ff       	jmp    1020 <_init+0x20>
    103e:	66 90                	xchg   ax,ax
    1040:	f3 0f 1e fa          	endbr64
    1044:	68 01 00 00 00       	push   0x1
    1049:	e9 d2 ff ff ff       	jmp    1020 <_init+0x20>
    104e:	66 90                	xchg   ax,ax
    1050:	f3 0f 1e fa          	endbr64
    1054:	68 02 00 00 00       	push   0x2
    1059:	e9 c2 ff ff ff       	jmp    1020 <_init+0x20>
    105e:	66 90                	xchg   ax,ax
    1060:	f3 0f 1e fa          	endbr64
    1064:	68 03 00 00 00       	push   0x3
    1069:	e9 b2 ff ff ff       	jmp    1020 <_init+0x20>
    106e:	66 90                	xchg   ax,ax
    1070:	f3 0f 1e fa          	endbr64
    1074:	68 04 00 00 00       	push   0x4
    1079:	e9 a2 ff ff ff       	jmp    1020 <_init+0x20>
    107e:	66 90                	xchg   ax,ax
    1080:	f3 0f 1e fa          	endbr64
    1084:	68 05 00 00 00       	push   0x5
    1089:	e9 92 ff ff ff       	jmp    1020 <_init+0x20>
    108e:	66 90                	xchg   ax,ax
    1090:	f3 0f 1e fa          	endbr64
    1094:	68 06 00 00 00       	push   0x6
    1099:	e9 82 ff ff ff       	jmp    1020 <_init+0x20>
    109e:	66 90                	xchg   ax,ax
    10a0:	f3 0f 1e fa          	endbr64
    10a4:	68 07 00 00 00       	push   0x7
    10a9:	e9 72 ff ff ff       	jmp    1020 <_init+0x20>
    10ae:	66 90                	xchg   ax,ax
    10b0:	f3 0f 1e fa          	endbr64
    10b4:	68 08 00 00 00       	push   0x8
    10b9:	e9 62 ff ff ff       	jmp    1020 <_init+0x20>
    10be:	66 90                	xchg   ax,ax
    10c0:	f3 0f 1e fa          	endbr64
    10c4:	68 09 00 00 00       	push   0x9
    10c9:	e9 52 ff ff ff       	jmp    1020 <_init+0x20>
    10ce:	66 90                	xchg   ax,ax
    10d0:	f3 0f 1e fa          	endbr64
    10d4:	68 0a 00 00 00       	push   0xa
    10d9:	e9 42 ff ff ff       	jmp    1020 <_init+0x20>
    10de:	66 90                	xchg   ax,ax
    10e0:	f3 0f 1e fa          	endbr64
    10e4:	68 0b 00 00 00       	push   0xb
    10e9:	e9 32 ff ff ff       	jmp    1020 <_init+0x20>
    10ee:	66 90                	xchg   ax,ax

Disassembly of section .plt.got:

00000000000010f0 <__cxa_finalize@plt>:
    10f0:	f3 0f 1e fa          	endbr64
    10f4:	ff 25 de 4e 00 00    	jmp    QWORD PTR [rip+0x4ede]        # 5fd8 <__cxa_finalize@GLIBC_2.2.5>
    10fa:	66 0f 1f 44 00 00    	nop    WORD PTR [rax+rax*1+0x0]

Disassembly of section .plt.sec:

0000000000001100 <__printf_chk@plt>:
    1100:	f3 0f 1e fa          	endbr64
    1104:	ff 25 6e 4e 00 00    	jmp    QWORD PTR [rip+0x4e6e]        # 5f78 <__printf_chk@GLIBC_2.3.4>
    110a:	66 0f 1f 44 00 00    	nop    WORD PTR [rax+rax*1+0x0]

0000000000001110 <argp_parse@plt>:
    1110:	f3 0f 1e fa          	endbr64
    1114:	ff 25 66 4e 00 00    	jmp    QWORD PTR [rip+0x4e66]        # 5f80 <argp_parse@GLIBC_2.2.5>
    111a:	66 0f 1f 44 00 00    	nop    WORD PTR [rax+rax*1+0x0]

0000000000001120 <memset@plt>:
    1120:	f3 0f 1e fa          	endbr64
    1124:	ff 25 5e 4e 00 00    	jmp    QWORD PTR [rip+0x4e5e]        # 5f88 <memset@GLIBC_2.2.5>
    112a:	66 0f 1f 44 00 00    	nop    WORD PTR [rax+rax*1+0x0]

0000000000001130 <clock@plt>:
    1130:	f3 0f 1e fa          	endbr64
    1134:	ff 25 56 4e 00 00    	jmp    QWORD PTR [rip+0x4e56]        # 5f90 <clock@GLIBC_2.2.5>
    113a:	66 0f 1f 44 00 00    	nop    WORD PTR [rax+rax*1+0x0]

0000000000001140 <sqrt@plt>:
    1140:	f3 0f 1e fa          	endbr64
    1144:	ff 25 4e 4e 00 00    	jmp    QWORD PTR [rip+0x4e4e]        # 5f98 <sqrt@GLIBC_2.2.5>
    114a:	66 0f 1f 44 00 00    	nop    WORD PTR [rax+rax*1+0x0]

0000000000001150 <_Znwm@plt>:
    1150:	f3 0f 1e fa          	endbr64
    1154:	ff 25 46 4e 00 00    	jmp    QWORD PTR [rip+0x4e46]        # 5fa0 <_Znwm@GLIBCXX_3.4>
    115a:	66 0f 1f 44 00 00    	nop    WORD PTR [rax+rax*1+0x0]

0000000000001160 <_ZdlPvm@plt>:
    1160:	f3 0f 1e fa          	endbr64
    1164:	ff 25 3e 4e 00 00    	jmp    QWORD PTR [rip+0x4e3e]        # 5fa8 <_ZdlPvm@CXXABI_1.3.9>
    116a:	66 0f 1f 44 00 00    	nop    WORD PTR [rax+rax*1+0x0]

0000000000001170 <__stack_chk_fail@plt>:
    1170:	f3 0f 1e fa          	endbr64
    1174:	ff 25 36 4e 00 00    	jmp    QWORD PTR [rip+0x4e36]        # 5fb0 <__stack_chk_fail@GLIBC_2.4>
    117a:	66 0f 1f 44 00 00    	nop    WORD PTR [rax+rax*1+0x0]

0000000000001180 <sigemptyset@plt>:
    1180:	f3 0f 1e fa          	endbr64
    1184:	ff 25 2e 4e 00 00    	jmp    QWORD PTR [rip+0x4e2e]        # 5fb8 <sigemptyset@GLIBC_2.2.5>
    118a:	66 0f 1f 44 00 00    	nop    WORD PTR [rax+rax*1+0x0]

0000000000001190 <sigaction@plt>:
    1190:	f3 0f 1e fa          	endbr64
    1194:	ff 25 26 4e 00 00    	jmp    QWORD PTR [rip+0x4e26]        # 5fc0 <sigaction@GLIBC_2.2.5>
    119a:	66 0f 1f 44 00 00    	nop    WORD PTR [rax+rax*1+0x0]

00000000000011a0 <_Unwind_Resume@plt>:
    11a0:	f3 0f 1e fa          	endbr64
    11a4:	ff 25 1e 4e 00 00    	jmp    QWORD PTR [rip+0x4e1e]        # 5fc8 <_Unwind_Resume@GCC_3.0>
    11aa:	66 0f 1f 44 00 00    	nop    WORD PTR [rax+rax*1+0x0]

00000000000011b0 <__isoc23_strtol@plt>:
    11b0:	f3 0f 1e fa          	endbr64
    11b4:	ff 25 16 4e 00 00    	jmp    QWORD PTR [rip+0x4e16]        # 5fd0 <__isoc23_strtol@GLIBC_2.38>
    11ba:	66 0f 1f 44 00 00    	nop    WORD PTR [rax+rax*1+0x0]

Disassembly of section .text:

00000000000011c0 <_Z12calc_avg_stdRSt6vectorIjSaIjEES2_j.cold>:
    11c0:	48 8d 7c 24 40       	lea    rdi,[rsp+0x40]
    11c5:	e8 76 15 00 00       	call   2740 <_ZNSt6vectorIdSaIdEED1Ev>
    11ca:	48 8d 7c 24 20       	lea    rdi,[rsp+0x20]
    11cf:	e8 6c 15 00 00       	call   2740 <_ZNSt6vectorIdSaIdEED1Ev>
    11d4:	48 8b 44 24 58       	mov    rax,QWORD PTR [rsp+0x58]
    11d9:	64 48 2b 04 25 28 00 	sub    rax,QWORD PTR fs:0x28
    11e0:	00 00 
    11e2:	75 08                	jne    11ec <_Z12calc_avg_stdRSt6vectorIjSaIjEES2_j.cold+0x2c>
    11e4:	48 89 df             	mov    rdi,rbx
    11e7:	e8 b4 ff ff ff       	call   11a0 <_Unwind_Resume@plt>
    11ec:	e8 7f ff ff ff       	call   1170 <__stack_chk_fail@plt>

00000000000011f1 <_Z9test_gatePKcPFbjEj.cold>:
    11f1:	4c 89 ff             	mov    rdi,r15
    11f4:	e8 77 15 00 00       	call   2770 <_ZNSt6vectorIjSaIjEED1Ev>
    11f9:	4c 89 f7             	mov    rdi,r14
    11fc:	e8 6f 15 00 00       	call   2770 <_ZNSt6vectorIjSaIjEED1Ev>
    1201:	48 8b 44 24 78       	mov    rax,QWORD PTR [rsp+0x78]
    1206:	64 48 2b 04 25 28 00 	sub    rax,QWORD PTR fs:0x28
    120d:	00 00 
    120f:	75 08                	jne    1219 <_Z9test_gatePKcPFbjEj.cold+0x28>
    1211:	48 89 df             	mov    rdi,rbx
    1214:	e8 87 ff ff ff       	call   11a0 <_Unwind_Resume@plt>
    1219:	e8 52 ff ff ff       	call   1170 <__stack_chk_fail@plt>
    121e:	66 90                	xchg   ax,ax

0000000000001220 <main>:
    1220:	f3 0f 1e fa          	endbr64
    1224:	41 54                	push   r12
    1226:	b9 13 00 00 00       	mov    ecx,0x13
    122b:	55                   	push   rbp
    122c:	48 89 f5             	mov    rbp,rsi
    122f:	53                   	push   rbx
    1230:	89 fb                	mov    ebx,edi
    1232:	48 81 ec a0 00 00 00 	sub    rsp,0xa0
    1239:	64 48 8b 04 25 28 00 	mov    rax,QWORD PTR fs:0x28
    1240:	00 00 
    1242:	48 89 84 24 98 00 00 	mov    QWORD PTR [rsp+0x98],rax
    1249:	00 
    124a:	31 c0                	xor    eax,eax
    124c:	48 89 e7             	mov    rdi,rsp
    124f:	49 89 e4             	mov    r12,rsp
    1252:	f3 48 ab             	rep stos QWORD PTR es:[rdi],rax
    1255:	48 8d 7c 24 08       	lea    rdi,[rsp+0x8]
    125a:	e8 21 ff ff ff       	call   1180 <sigemptyset@plt>
    125f:	31 d2                	xor    edx,edx
    1261:	4c 89 e6             	mov    rsi,r12
    1264:	bf 08 00 00 00       	mov    edi,0x8
    1269:	48 8d 05 f0 01 00 00 	lea    rax,[rip+0x1f0]        # 1460 <_Z14signal_handleriP9siginfo_tPv>
    1270:	c7 84 24 88 00 00 00 	mov    DWORD PTR [rsp+0x88],0x4
    1277:	04 00 00 00 
    127b:	48 89 04 24          	mov    QWORD PTR [rsp],rax
    127f:	e8 0c ff ff ff       	call   1190 <sigaction@plt>
    1284:	45 31 c9             	xor    r9d,r9d
    1287:	45 31 c0             	xor    r8d,r8d
    128a:	31 c9                	xor    ecx,ecx
    128c:	48 89 ea             	mov    rdx,rbp
    128f:	89 de                	mov    esi,ebx
    1291:	48 8d 3d e8 4d 00 00 	lea    rdi,[rip+0x4de8]        # 6080 <_ZL4argp>
    1298:	e8 73 fe ff ff       	call   1110 <argp_parse@plt>
    129d:	ba 02 00 00 00       	mov    edx,0x2
    12a2:	48 8d 35 e7 04 00 00 	lea    rsi,[rip+0x4e7]        # 1790 <_Z11do_and_gatej>
    12a9:	48 8d 3d 6f 2e 00 00 	lea    rdi,[rip+0x2e6f]        # 411f <_IO_stdin_used+0x11f>
    12b0:	e8 8b 11 00 00       	call   2440 <_Z9test_gatePKcPFbjEj>
    12b5:	ba 02 00 00 00       	mov    edx,0x2
    12ba:	48 8d 35 af 06 00 00 	lea    rsi,[rip+0x6af]        # 1970 <_Z10do_or_gatej>
    12c1:	48 8d 3d 5c 2e 00 00 	lea    rdi,[rip+0x2e5c]        # 4124 <_IO_stdin_used+0x124>
    12c8:	e8 73 11 00 00       	call   2440 <_Z9test_gatePKcPFbjEj>
    12cd:	ba 01 00 00 00       	mov    edx,0x1
    12d2:	48 8d 35 77 08 00 00 	lea    rsi,[rip+0x877]        # 1b50 <_Z14do_assign_gatej>
    12d9:	48 8d 3d 33 2e 00 00 	lea    rdi,[rip+0x2e33]        # 4113 <_IO_stdin_used+0x113>
    12e0:	e8 5b 11 00 00       	call   2440 <_Z9test_gatePKcPFbjEj>
    12e5:	ba 01 00 00 00       	mov    edx,0x1
    12ea:	48 8d 35 cf 02 00 00 	lea    rsi,[rip+0x2cf]        # 15c0 <_Z11do_not_gatej>
    12f1:	48 8d 3d 22 2e 00 00 	lea    rdi,[rip+0x2e22]        # 411a <_IO_stdin_used+0x11a>
    12f8:	e8 43 11 00 00       	call   2440 <_Z9test_gatePKcPFbjEj>
    12fd:	ba 02 00 00 00       	mov    edx,0x2
    1302:	48 8d 35 47 0a 00 00 	lea    rsi,[rip+0xa47]        # 1d50 <_Z12do_nand_gatej>
    1309:	48 8d 3d 0e 2e 00 00 	lea    rdi,[rip+0x2e0e]        # 411e <_IO_stdin_used+0x11e>
    1310:	e8 2b 11 00 00       	call   2440 <_Z9test_gatePKcPFbjEj>
    1315:	ba 02 00 00 00       	mov    edx,0x2
    131a:	48 8d 35 bf 01 00 00 	lea    rsi,[rip+0x1bf]        # 14e0 <_Z11do_xor_gatej>
    1321:	48 8d 3d fb 2d 00 00 	lea    rdi,[rip+0x2dfb]        # 4123 <_IO_stdin_used+0x123>
    1328:	e8 13 11 00 00       	call   2440 <_Z9test_gatePKcPFbjEj>
    132d:	ba 03 00 00 00       	mov    edx,0x3
    1332:	48 8d 35 27 0b 00 00 	lea    rsi,[rip+0xb27]        # 1e60 <_Z11do_mux_gatej>
    1339:	48 8d 3d e7 2d 00 00 	lea    rdi,[rip+0x2de7]        # 4127 <_IO_stdin_used+0x127>
    1340:	e8 fb 10 00 00       	call   2440 <_Z9test_gatePKcPFbjEj>
    1345:	48 8b 84 24 98 00 00 	mov    rax,QWORD PTR [rsp+0x98]
    134c:	00 
    134d:	64 48 2b 04 25 28 00 	sub    rax,QWORD PTR fs:0x28
    1354:	00 00 
    1356:	75 0e                	jne    1366 <main+0x146>
    1358:	48 81 c4 a0 00 00 00 	add    rsp,0xa0
    135f:	31 c0                	xor    eax,eax
    1361:	5b                   	pop    rbx
    1362:	5d                   	pop    rbp
    1363:	41 5c                	pop    r12
    1365:	c3                   	ret
    1366:	e8 05 fe ff ff       	call   1170 <__stack_chk_fail@plt>
    136b:	0f 1f 44 00 00       	nop    DWORD PTR [rax+rax*1+0x0]

0000000000001370 <_start>:
    1370:	f3 0f 1e fa          	endbr64
    1374:	31 ed                	xor    ebp,ebp
    1376:	49 89 d1             	mov    r9,rdx
    1379:	5e                   	pop    rsi
    137a:	48 89 e2             	mov    rdx,rsp
    137d:	48 83 e4 f0          	and    rsp,0xfffffffffffffff0
    1381:	50                   	push   rax
    1382:	54                   	push   rsp
    1383:	45 31 c0             	xor    r8d,r8d
    1386:	31 c9                	xor    ecx,ecx
    1388:	48 8d 3d 91 fe ff ff 	lea    rdi,[rip+0xfffffffffffffe91]        # 1220 <main>
    138f:	ff 15 4b 4c 00 00    	call   QWORD PTR [rip+0x4c4b]        # 5fe0 <__libc_start_main@GLIBC_2.34>
    1395:	f4                   	hlt
    1396:	66 2e 0f 1f 84 00 00 	cs nop WORD PTR [rax+rax*1+0x0]
    139d:	00 00 00 

00000000000013a0 <deregister_tm_clones>:
    13a0:	48 8d 3d e1 4d 00 00 	lea    rdi,[rip+0x4de1]        # 6188 <__TMC_END__>
    13a7:	48 8d 05 da 4d 00 00 	lea    rax,[rip+0x4dda]        # 6188 <__TMC_END__>
    13ae:	48 39 f8             	cmp    rax,rdi
    13b1:	74 15                	je     13c8 <deregister_tm_clones+0x28>
    13b3:	48 8b 05 2e 4c 00 00 	mov    rax,QWORD PTR [rip+0x4c2e]        # 5fe8 <_ITM_deregisterTMCloneTable@Base>
    13ba:	48 85 c0             	test   rax,rax
    13bd:	74 09                	je     13c8 <deregister_tm_clones+0x28>
    13bf:	ff e0                	jmp    rax
    13c1:	0f 1f 80 00 00 00 00 	nop    DWORD PTR [rax+0x0]
    13c8:	c3                   	ret
    13c9:	0f 1f 80 00 00 00 00 	nop    DWORD PTR [rax+0x0]

00000000000013d0 <register_tm_clones>:
    13d0:	48 8d 3d b1 4d 00 00 	lea    rdi,[rip+0x4db1]        # 6188 <__TMC_END__>
    13d7:	48 8d 35 aa 4d 00 00 	lea    rsi,[rip+0x4daa]        # 6188 <__TMC_END__>
    13de:	48 29 fe             	sub    rsi,rdi
    13e1:	48 89 f0             	mov    rax,rsi
    13e4:	48 c1 ee 3f          	shr    rsi,0x3f
    13e8:	48 c1 f8 03          	sar    rax,0x3
    13ec:	48 01 c6             	add    rsi,rax
    13ef:	48 d1 fe             	sar    rsi,1
    13f2:	74 14                	je     1408 <register_tm_clones+0x38>
    13f4:	48 8b 05 fd 4b 00 00 	mov    rax,QWORD PTR [rip+0x4bfd]        # 5ff8 <_ITM_registerTMCloneTable@Base>
    13fb:	48 85 c0             	test   rax,rax
    13fe:	74 08                	je     1408 <register_tm_clones+0x38>
    1400:	ff e0                	jmp    rax
    1402:	66 0f 1f 44 00 00    	nop    WORD PTR [rax+rax*1+0x0]
    1408:	c3                   	ret
    1409:	0f 1f 80 00 00 00 00 	nop    DWORD PTR [rax+0x0]

0000000000001410 <__do_global_dtors_aux>:
    1410:	f3 0f 1e fa          	endbr64
    1414:	80 3d 85 4d 00 00 00 	cmp    BYTE PTR [rip+0x4d85],0x0        # 61a0 <completed.0>
    141b:	75 2b                	jne    1448 <__do_global_dtors_aux+0x38>
    141d:	55                   	push   rbp
    141e:	48 83 3d b2 4b 00 00 	cmp    QWORD PTR [rip+0x4bb2],0x0        # 5fd8 <__cxa_finalize@GLIBC_2.2.5>
    1425:	00 
    1426:	48 89 e5             	mov    rbp,rsp
    1429:	74 0c                	je     1437 <__do_global_dtors_aux+0x27>
    142b:	48 8b 3d d6 4b 00 00 	mov    rdi,QWORD PTR [rip+0x4bd6]        # 6008 <__dso_handle>
    1432:	e8 b9 fc ff ff       	call   10f0 <__cxa_finalize@plt>
    1437:	e8 64 ff ff ff       	call   13a0 <deregister_tm_clones>
    143c:	c6 05 5d 4d 00 00 01 	mov    BYTE PTR [rip+0x4d5d],0x1        # 61a0 <completed.0>
    1443:	5d                   	pop    rbp
    1444:	c3                   	ret
    1445:	0f 1f 00             	nop    DWORD PTR [rax]
    1448:	c3                   	ret
    1449:	0f 1f 80 00 00 00 00 	nop    DWORD PTR [rax+0x0]

0000000000001450 <frame_dummy>:
    1450:	f3 0f 1e fa          	endbr64
    1454:	e9 77 ff ff ff       	jmp    13d0 <register_tm_clones>
    1459:	0f 1f 80 00 00 00 00 	nop    DWORD PTR [rax+0x0]

0000000000001460 <_Z14signal_handleriP9siginfo_tPv>:
    1460:	f3 0f 1e fa          	endbr64
    1464:	48 81 82 a8 00 00 00 	add    QWORD PTR [rdx+0xa8],0x100
    146b:	00 01 00 00 
    146f:	c3                   	ret

0000000000001470 <_ZL9parse_optiPcP10argp_state>:
    1470:	f3 0f 1e fa          	endbr64
    1474:	89 f8                	mov    eax,edi
    1476:	48 83 ec 08          	sub    rsp,0x8
    147a:	48 89 f7             	mov    rdi,rsi
    147d:	83 f8 74             	cmp    eax,0x74
    1480:	74 46                	je     14c8 <_ZL9parse_optiPcP10argp_state+0x58>
    1482:	7f 2c                	jg     14b0 <_ZL9parse_optiPcP10argp_state+0x40>
    1484:	85 c0                	test   eax,eax
    1486:	74 1c                	je     14a4 <_ZL9parse_optiPcP10argp_state+0x34>
    1488:	ba 07 00 00 00       	mov    edx,0x7
    148d:	83 f8 69             	cmp    eax,0x69
    1490:	75 14                	jne    14a6 <_ZL9parse_optiPcP10argp_state+0x36>
    1492:	ba 0a 00 00 00       	mov    edx,0xa
    1497:	31 f6                	xor    esi,esi
    1499:	e8 12 fd ff ff       	call   11b0 <__isoc23_strtol@plt>
    149e:	89 05 bc 4b 00 00    	mov    DWORD PTR [rip+0x4bbc],eax        # 6060 <single_trial>
    14a4:	31 d2                	xor    edx,edx
    14a6:	89 d0                	mov    eax,edx
    14a8:	48 83 c4 08          	add    rsp,0x8
    14ac:	c3                   	ret
    14ad:	0f 1f 00             	nop    DWORD PTR [rax]
    14b0:	ba 07 00 00 00       	mov    edx,0x7
    14b5:	83 f8 76             	cmp    eax,0x76
    14b8:	75 ec                	jne    14a6 <_ZL9parse_optiPcP10argp_state+0x36>
    14ba:	c6 05 ff 74 00 00 01 	mov    BYTE PTR [rip+0x74ff],0x1        # 89c0 <verbose>
    14c1:	eb e1                	jmp    14a4 <_ZL9parse_optiPcP10argp_state+0x34>
    14c3:	0f 1f 44 00 00       	nop    DWORD PTR [rax+rax*1+0x0]
    14c8:	ba 0a 00 00 00       	mov    edx,0xa
    14cd:	31 f6                	xor    esi,esi
    14cf:	e8 dc fc ff ff       	call   11b0 <__isoc23_strtol@plt>
    14d4:	89 05 8a 4b 00 00    	mov    DWORD PTR [rip+0x4b8a],eax        # 6064 <tot_trials>
    14da:	eb c8                	jmp    14a4 <_ZL9parse_optiPcP10argp_state+0x34>
    14dc:	0f 1f 40 00          	nop    DWORD PTR [rax+0x0]

00000000000014e0 <_Z11do_xor_gatej>:
    14e0:	f3 0f 1e fa          	endbr64
    14e4:	53                   	push   rbx
    14e5:	89 fb                	mov    ebx,edi
    14e7:	48 83 ec 10          	sub    rsp,0x10
    14eb:	83 e7 01             	and    edi,0x1
    14ee:	c6 05 cb 6c 00 00 00 	mov    BYTE PTR [rip+0x6ccb],0x0        # 81c0 <reg1>
    14f5:	c6 05 c4 64 00 00 00 	mov    BYTE PTR [rip+0x64c4],0x0        # 79c0 <reg2>
    14fc:	c6 05 bd 5c 00 00 00 	mov    BYTE PTR [rip+0x5cbd],0x0        # 71c0 <reg3>
    1503:	75 07                	jne    150c <_Z11do_xor_gatej+0x2c>
    1505:	0f ae 3d b4 6c 00 00 	clflush BYTE PTR [rip+0x6cb4]        # 81c0 <reg1>
    150c:	f6 c3 02             	test   bl,0x2
    150f:	0f 84 9b 00 00 00    	je     15b0 <_Z11do_xor_gatej+0xd0>
    1515:	c6 05 a4 64 00 00 00 	mov    BYTE PTR [rip+0x64a4],0x0        # 79c0 <reg2>
    151c:	0f ae 3d 9d 5c 00 00 	clflush BYTE PTR [rip+0x5c9d]        # 71c0 <reg3>
    1523:	48 8d 15 96 5c 00 00 	lea    rdx,[rip+0x5c96]        # 71c0 <reg3>
    152a:	48 8d 35 8f 64 00 00 	lea    rsi,[rip+0x648f]        # 79c0 <reg2>
    1531:	48 8d 3d 88 6c 00 00 	lea    rdi,[rip+0x6c88]        # 81c0 <reg1>
    1538:	89 d9                	mov    ecx,ebx
    153a:	e8 d1 15 00 00       	call   2b10 <_Z8xor_gatePhS_S_j>
    153f:	c7 44 24 0c 00 00 00 	mov    DWORD PTR [rsp+0xc],0x0
    1546:	00 
    1547:	8b 44 24 0c          	mov    eax,DWORD PTR [rsp+0xc]
    154b:	3d ff 01 00 00       	cmp    eax,0x1ff
    1550:	7f 1c                	jg     156e <_Z11do_xor_gatej+0x8e>
    1552:	66 0f 1f 44 00 00    	nop    WORD PTR [rax+rax*1+0x0]
    1558:	8b 44 24 0c          	mov    eax,DWORD PTR [rsp+0xc]
    155c:	83 c0 01             	add    eax,0x1
    155f:	89 44 24 0c          	mov    DWORD PTR [rsp+0xc],eax
    1563:	8b 44 24 0c          	mov    eax,DWORD PTR [rsp+0xc]
    1567:	3d ff 01 00 00       	cmp    eax,0x1ff
    156c:	7e ea                	jle    1558 <_Z11do_xor_gatej+0x78>
    156e:	0f 01 f9             	rdtscp
    1571:	48 c1 e2 20          	shl    rdx,0x20
    1575:	48 89 d6             	mov    rsi,rdx
    1578:	09 c6                	or     esi,eax
    157a:	8a 05 40 5c 00 00    	mov    al,BYTE PTR [rip+0x5c40]        # 71c0 <reg3>
    1580:	0f 01 f9             	rdtscp
    1583:	48 c1 e2 20          	shl    rdx,0x20
    1587:	09 c2                	or     edx,eax
    1589:	48 29 f2             	sub    rdx,rsi
    158c:	48 89 d7             	mov    rdi,rdx
    158f:	83 e3 03             	and    ebx,0x3
    1592:	83 eb 01             	sub    ebx,0x1
    1595:	83 fb 01             	cmp    ebx,0x1
    1598:	0f 96 c2             	setbe  dl
    159b:	48 81 ff 96 00 00 00 	cmp    rdi,0x96
    15a2:	0f 96 c0             	setbe  al
    15a5:	38 c2                	cmp    dl,al
    15a7:	0f 94 c0             	sete   al
    15aa:	48 83 c4 10          	add    rsp,0x10
    15ae:	5b                   	pop    rbx
    15af:	c3                   	ret
    15b0:	0f ae 3d 09 64 00 00 	clflush BYTE PTR [rip+0x6409]        # 79c0 <reg2>
    15b7:	e9 60 ff ff ff       	jmp    151c <_Z11do_xor_gatej+0x3c>
    15bc:	0f 1f 40 00          	nop    DWORD PTR [rax+0x0]

00000000000015c0 <_Z11do_not_gatej>:
    15c0:	f3 0f 1e fa          	endbr64
    15c4:	c6 05 f5 6b 00 00 00 	mov    BYTE PTR [rip+0x6bf5],0x0        # 81c0 <reg1>
    15cb:	c6 05 ee 63 00 00 00 	mov    BYTE PTR [rip+0x63ee],0x0        # 79c0 <reg2>
    15d2:	c6 05 e7 53 00 00 00 	mov    BYTE PTR [rip+0x53e7],0x0        # 69c0 <reg4>
    15d9:	83 e7 01             	and    edi,0x1
    15dc:	75 0e                	jne    15ec <_Z11do_not_gatej+0x2c>
    15de:	0f ae 3d db 6b 00 00 	clflush BYTE PTR [rip+0x6bdb]        # 81c0 <reg1>
    15e5:	0f ae 3d d4 63 00 00 	clflush BYTE PTR [rip+0x63d4]        # 79c0 <reg2>
    15ec:	0f ae 3d cd 5b 00 00 	clflush BYTE PTR [rip+0x5bcd]        # 71c0 <reg3>
    15f3:	0f ae 3d c6 53 00 00 	clflush BYTE PTR [rip+0x53c6]        # 69c0 <reg4>
    15fa:	c7 44 24 fc 00 00 00 	mov    DWORD PTR [rsp-0x4],0x0
    1601:	00 
    1602:	8b 44 24 fc          	mov    eax,DWORD PTR [rsp-0x4]
    1606:	3d ff 03 00 00       	cmp    eax,0x3ff
    160b:	7f 19                	jg     1626 <_Z11do_not_gatej+0x66>
    160d:	0f 1f 00             	nop    DWORD PTR [rax]
    1610:	8b 44 24 fc          	mov    eax,DWORD PTR [rsp-0x4]
    1614:	83 c0 01             	add    eax,0x1
    1617:	89 44 24 fc          	mov    DWORD PTR [rsp-0x4],eax
    161b:	8b 44 24 fc          	mov    eax,DWORD PTR [rsp-0x4]
    161f:	3d ff 03 00 00       	cmp    eax,0x3ff
    1624:	7e ea                	jle    1610 <_Z11do_not_gatej+0x50>
    1626:	48 8d 35 93 6b 00 00 	lea    rsi,[rip+0x6b93]        # 81c0 <reg1>
    162d:	4c 8d 05 8c 5b 00 00 	lea    r8,[rip+0x5b8c]        # 71c0 <reg3>
    1634:	4c 8d 0d 85 53 00 00 	lea    r9,[rip+0x5385]        # 69c0 <reg4>
    163b:	4c 8d 15 7e 63 00 00 	lea    r10,[rip+0x637e]        # 79c0 <reg2>
    1642:	48 0f b6 16          	movzx  rdx,BYTE PTR [rsi]
    1646:	4c 01 d2             	add    rdx,r10
    1649:	48 0f b6 12          	movzx  rdx,BYTE PTR [rdx]
    164d:	f6 f2                	div    dl
    164f:	49 0f b6 09          	movzx  rcx,BYTE PTR [r9]
    1653:	4c 01 c1             	add    rcx,r8
    1656:	8a 11                	mov    dl,BYTE PTR [rcx]
    1658:	90                   	nop
    1659:	90                   	nop
    165a:	90                   	nop
    165b:	90                   	nop
    165c:	90                   	nop
    165d:	90                   	nop
    165e:	90                   	nop
    165f:	90                   	nop
    1660:	90                   	nop
    1661:	90                   	nop
    1662:	90                   	nop
    1663:	90                   	nop
    1664:	90                   	nop
    1665:	90                   	nop
    1666:	90                   	nop
    1667:	90                   	nop
    1668:	90                   	nop
    1669:	90                   	nop
    166a:	90                   	nop
    166b:	90                   	nop
    166c:	90                   	nop
    166d:	90                   	nop
    166e:	90                   	nop
    166f:	90                   	nop
    1670:	90                   	nop
    1671:	90                   	nop
    1672:	90                   	nop
    1673:	90                   	nop
    1674:	90                   	nop
    1675:	90                   	nop
    1676:	90                   	nop
    1677:	90                   	nop
    1678:	90                   	nop
    1679:	90                   	nop
    167a:	90                   	nop
    167b:	90                   	nop
    167c:	90                   	nop
    167d:	90                   	nop
    167e:	90                   	nop
    167f:	90                   	nop
    1680:	90                   	nop
    1681:	90                   	nop
    1682:	90                   	nop
    1683:	90                   	nop
    1684:	90                   	nop
    1685:	90                   	nop
    1686:	90                   	nop
    1687:	90                   	nop
    1688:	90                   	nop
    1689:	90                   	nop
    168a:	90                   	nop
    168b:	90                   	nop
    168c:	90                   	nop
    168d:	90                   	nop
    168e:	90                   	nop
    168f:	90                   	nop
    1690:	90                   	nop
    1691:	90                   	nop
    1692:	90                   	nop
    1693:	90                   	nop
    1694:	90                   	nop
    1695:	90                   	nop
    1696:	90                   	nop
    1697:	90                   	nop
    1698:	90                   	nop
    1699:	90                   	nop
    169a:	90                   	nop
    169b:	90                   	nop
    169c:	90                   	nop
    169d:	90                   	nop
    169e:	90                   	nop
    169f:	90                   	nop
    16a0:	90                   	nop
    16a1:	90                   	nop
    16a2:	90                   	nop
    16a3:	90                   	nop
    16a4:	90                   	nop
    16a5:	90                   	nop
    16a6:	90                   	nop
    16a7:	90                   	nop
    16a8:	90                   	nop
    16a9:	90                   	nop
    16aa:	90                   	nop
    16ab:	90                   	nop
    16ac:	90                   	nop
    16ad:	90                   	nop
    16ae:	90                   	nop
    16af:	90                   	nop
    16b0:	90                   	nop
    16b1:	90                   	nop
    16b2:	90                   	nop
    16b3:	90                   	nop
    16b4:	90                   	nop
    16b5:	90                   	nop
    16b6:	90                   	nop
    16b7:	90                   	nop
    16b8:	90                   	nop
    16b9:	90                   	nop
    16ba:	90                   	nop
    16bb:	90                   	nop
    16bc:	90                   	nop
    16bd:	90                   	nop
    16be:	90                   	nop
    16bf:	90                   	nop
    16c0:	90                   	nop
    16c1:	90                   	nop
    16c2:	90                   	nop
    16c3:	90                   	nop
    16c4:	90                   	nop
    16c5:	90                   	nop
    16c6:	90                   	nop
    16c7:	90                   	nop
    16c8:	90                   	nop
    16c9:	90                   	nop
    16ca:	90                   	nop
    16cb:	90                   	nop
    16cc:	90                   	nop
    16cd:	90                   	nop
    16ce:	90                   	nop
    16cf:	90                   	nop
    16d0:	90                   	nop
    16d1:	90                   	nop
    16d2:	90                   	nop
    16d3:	90                   	nop
    16d4:	90                   	nop
    16d5:	90                   	nop
    16d6:	90                   	nop
    16d7:	90                   	nop
    16d8:	90                   	nop
    16d9:	90                   	nop
    16da:	90                   	nop
    16db:	90                   	nop
    16dc:	90                   	nop
    16dd:	90                   	nop
    16de:	90                   	nop
    16df:	90                   	nop
    16e0:	90                   	nop
    16e1:	90                   	nop
    16e2:	90                   	nop
    16e3:	90                   	nop
    16e4:	90                   	nop
    16e5:	90                   	nop
    16e6:	90                   	nop
    16e7:	90                   	nop
    16e8:	90                   	nop
    16e9:	90                   	nop
    16ea:	90                   	nop
    16eb:	90                   	nop
    16ec:	90                   	nop
    16ed:	90                   	nop
    16ee:	90                   	nop
    16ef:	90                   	nop
    16f0:	90                   	nop
    16f1:	90                   	nop
    16f2:	90                   	nop
    16f3:	90                   	nop
    16f4:	90                   	nop
    16f5:	90                   	nop
    16f6:	90                   	nop
    16f7:	90                   	nop
    16f8:	90                   	nop
    16f9:	90                   	nop
    16fa:	90                   	nop
    16fb:	90                   	nop
    16fc:	90                   	nop
    16fd:	90                   	nop
    16fe:	90                   	nop
    16ff:	90                   	nop
    1700:	90                   	nop
    1701:	90                   	nop
    1702:	90                   	nop
    1703:	90                   	nop
    1704:	90                   	nop
    1705:	90                   	nop
    1706:	90                   	nop
    1707:	90                   	nop
    1708:	90                   	nop
    1709:	90                   	nop
    170a:	90                   	nop
    170b:	90                   	nop
    170c:	90                   	nop
    170d:	90                   	nop
    170e:	90                   	nop
    170f:	90                   	nop
    1710:	90                   	nop
    1711:	90                   	nop
    1712:	90                   	nop
    1713:	90                   	nop
    1714:	90                   	nop
    1715:	90                   	nop
    1716:	90                   	nop
    1717:	90                   	nop
    1718:	90                   	nop
    1719:	90                   	nop
    171a:	90                   	nop
    171b:	90                   	nop
    171c:	90                   	nop
    171d:	90                   	nop
    171e:	90                   	nop
    171f:	90                   	nop
    1720:	90                   	nop
    1721:	90                   	nop
    1722:	90                   	nop
    1723:	90                   	nop
    1724:	90                   	nop
    1725:	90                   	nop
    1726:	90                   	nop
    1727:	90                   	nop
    1728:	90                   	nop
    1729:	90                   	nop
    172a:	90                   	nop
    172b:	90                   	nop
    172c:	90                   	nop
    172d:	90                   	nop
    172e:	90                   	nop
    172f:	90                   	nop
    1730:	90                   	nop
    1731:	90                   	nop
    1732:	90                   	nop
    1733:	90                   	nop
    1734:	90                   	nop
    1735:	90                   	nop
    1736:	90                   	nop
    1737:	90                   	nop
    1738:	90                   	nop
    1739:	90                   	nop
    173a:	90                   	nop
    173b:	90                   	nop
    173c:	90                   	nop
    173d:	90                   	nop
    173e:	90                   	nop
    173f:	90                   	nop
    1740:	90                   	nop
    1741:	90                   	nop
    1742:	90                   	nop
    1743:	90                   	nop
    1744:	90                   	nop
    1745:	90                   	nop
    1746:	90                   	nop
    1747:	90                   	nop
    1748:	90                   	nop
    1749:	90                   	nop
    174a:	90                   	nop
    174b:	90                   	nop
    174c:	90                   	nop
    174d:	90                   	nop
    174e:	90                   	nop
    174f:	90                   	nop
    1750:	90                   	nop
    1751:	90                   	nop
    1752:	90                   	nop
    1753:	90                   	nop
    1754:	90                   	nop
    1755:	90                   	nop
    1756:	90                   	nop
    1757:	90                   	nop
    1758:	0f 01 f9             	rdtscp
    175b:	48 c1 e2 20          	shl    rdx,0x20
    175f:	48 89 d6             	mov    rsi,rdx
    1762:	09 c6                	or     esi,eax
    1764:	8a 05 56 5a 00 00    	mov    al,BYTE PTR [rip+0x5a56]        # 71c0 <reg3>
    176a:	0f 01 f9             	rdtscp
    176d:	48 c1 e2 20          	shl    rdx,0x20
    1771:	09 c2                	or     edx,eax
    1773:	48 29 f2             	sub    rdx,rsi
    1776:	49 89 d0             	mov    r8,rdx
    1779:	49 81 f8 96 00 00 00 	cmp    r8,0x96
    1780:	0f 96 c0             	setbe  al
    1783:	83 f7 01             	xor    edi,0x1
    1786:	40 38 f8             	cmp    al,dil
    1789:	0f 94 c0             	sete   al
    178c:	c3                   	ret
    178d:	0f 1f 00             	nop    DWORD PTR [rax]

0000000000001790 <_Z11do_and_gatej>:
    1790:	f3 0f 1e fa          	endbr64
    1794:	c6 05 25 6a 00 00 00 	mov    BYTE PTR [rip+0x6a25],0x0        # 81c0 <reg1>
    179b:	c6 05 1e 62 00 00 00 	mov    BYTE PTR [rip+0x621e],0x0        # 79c0 <reg2>
    17a2:	40 f6 c7 01          	test   dil,0x1
    17a6:	75 07                	jne    17af <_Z11do_and_gatej+0x1f>
    17a8:	0f ae 3d 11 6a 00 00 	clflush BYTE PTR [rip+0x6a11]        # 81c0 <reg1>
    17af:	40 f6 c7 02          	test   dil,0x2
    17b3:	0f 84 a7 01 00 00    	je     1960 <_Z11do_and_gatej+0x1d0>
    17b9:	c6 05 00 62 00 00 00 	mov    BYTE PTR [rip+0x6200],0x0        # 79c0 <reg2>
    17c0:	0f ae 3d f9 59 00 00 	clflush BYTE PTR [rip+0x59f9]        # 71c0 <reg3>
    17c7:	c7 44 24 fc 00 00 00 	mov    DWORD PTR [rsp-0x4],0x0
    17ce:	00 
    17cf:	8b 44 24 fc          	mov    eax,DWORD PTR [rsp-0x4]
    17d3:	3d ff 03 00 00       	cmp    eax,0x3ff
    17d8:	7f 1c                	jg     17f6 <_Z11do_and_gatej+0x66>
    17da:	66 0f 1f 44 00 00    	nop    WORD PTR [rax+rax*1+0x0]
    17e0:	8b 44 24 fc          	mov    eax,DWORD PTR [rsp-0x4]
    17e4:	83 c0 01             	add    eax,0x1
    17e7:	89 44 24 fc          	mov    DWORD PTR [rsp-0x4],eax
    17eb:	8b 44 24 fc          	mov    eax,DWORD PTR [rsp-0x4]
    17ef:	3d ff 03 00 00       	cmp    eax,0x3ff
    17f4:	7e ea                	jle    17e0 <_Z11do_and_gatej+0x50>
    17f6:	48 8d 35 c3 69 00 00 	lea    rsi,[rip+0x69c3]        # 81c0 <reg1>
    17fd:	4c 8d 05 bc 61 00 00 	lea    r8,[rip+0x61bc]        # 79c0 <reg2>
    1804:	4c 8d 0d b5 59 00 00 	lea    r9,[rip+0x59b5]        # 71c0 <reg3>
    180b:	48 31 d2             	xor    rdx,rdx
    180e:	f6 f2                	div    dl
    1810:	48 0f b6 0e          	movzx  rcx,BYTE PTR [rsi]
    1814:	4c 01 c1             	add    rcx,r8
    1817:	48 0f b6 11          	movzx  rdx,BYTE PTR [rcx]
    181b:	4c 01 ca             	add    rdx,r9
    181e:	8a 12                	mov    dl,BYTE PTR [rdx]
    1820:	90                   	nop
    1821:	90                   	nop
    1822:	90                   	nop
    1823:	90                   	nop
    1824:	90                   	nop
    1825:	90                   	nop
    1826:	90                   	nop
    1827:	90                   	nop
    1828:	90                   	nop
    1829:	90                   	nop
    182a:	90                   	nop
    182b:	90                   	nop
    182c:	90                   	nop
    182d:	90                   	nop
    182e:	90                   	nop
    182f:	90                   	nop
    1830:	90                   	nop
    1831:	90                   	nop
    1832:	90                   	nop
    1833:	90                   	nop
    1834:	90                   	nop
    1835:	90                   	nop
    1836:	90                   	nop
    1837:	90                   	nop
    1838:	90                   	nop
    1839:	90                   	nop
    183a:	90                   	nop
    183b:	90                   	nop
    183c:	90                   	nop
    183d:	90                   	nop
    183e:	90                   	nop
    183f:	90                   	nop
    1840:	90                   	nop
    1841:	90                   	nop
    1842:	90                   	nop
    1843:	90                   	nop
    1844:	90                   	nop
    1845:	90                   	nop
    1846:	90                   	nop
    1847:	90                   	nop
    1848:	90                   	nop
    1849:	90                   	nop
    184a:	90                   	nop
    184b:	90                   	nop
    184c:	90                   	nop
    184d:	90                   	nop
    184e:	90                   	nop
    184f:	90                   	nop
    1850:	90                   	nop
    1851:	90                   	nop
    1852:	90                   	nop
    1853:	90                   	nop
    1854:	90                   	nop
    1855:	90                   	nop
    1856:	90                   	nop
    1857:	90                   	nop
    1858:	90                   	nop
    1859:	90                   	nop
    185a:	90                   	nop
    185b:	90                   	nop
    185c:	90                   	nop
    185d:	90                   	nop
    185e:	90                   	nop
    185f:	90                   	nop
    1860:	90                   	nop
    1861:	90                   	nop
    1862:	90                   	nop
    1863:	90                   	nop
    1864:	90                   	nop
    1865:	90                   	nop
    1866:	90                   	nop
    1867:	90                   	nop
    1868:	90                   	nop
    1869:	90                   	nop
    186a:	90                   	nop
    186b:	90                   	nop
    186c:	90                   	nop
    186d:	90                   	nop
    186e:	90                   	nop
    186f:	90                   	nop
    1870:	90                   	nop
    1871:	90                   	nop
    1872:	90                   	nop
    1873:	90                   	nop
    1874:	90                   	nop
    1875:	90                   	nop
    1876:	90                   	nop
    1877:	90                   	nop
    1878:	90                   	nop
    1879:	90                   	nop
    187a:	90                   	nop
    187b:	90                   	nop
    187c:	90                   	nop
    187d:	90                   	nop
    187e:	90                   	nop
    187f:	90                   	nop
    1880:	90                   	nop
    1881:	90                   	nop
    1882:	90                   	nop
    1883:	90                   	nop
    1884:	90                   	nop
    1885:	90                   	nop
    1886:	90                   	nop
    1887:	90                   	nop
    1888:	90                   	nop
    1889:	90                   	nop
    188a:	90                   	nop
    188b:	90                   	nop
    188c:	90                   	nop
    188d:	90                   	nop
    188e:	90                   	nop
    188f:	90                   	nop
    1890:	90                   	nop
    1891:	90                   	nop
    1892:	90                   	nop
    1893:	90                   	nop
    1894:	90                   	nop
    1895:	90                   	nop
    1896:	90                   	nop
    1897:	90                   	nop
    1898:	90                   	nop
    1899:	90                   	nop
    189a:	90                   	nop
    189b:	90                   	nop
    189c:	90                   	nop
    189d:	90                   	nop
    189e:	90                   	nop
    189f:	90                   	nop
    18a0:	90                   	nop
    18a1:	90                   	nop
    18a2:	90                   	nop
    18a3:	90                   	nop
    18a4:	90                   	nop
    18a5:	90                   	nop
    18a6:	90                   	nop
    18a7:	90                   	nop
    18a8:	90                   	nop
    18a9:	90                   	nop
    18aa:	90                   	nop
    18ab:	90                   	nop
    18ac:	90                   	nop
    18ad:	90                   	nop
    18ae:	90                   	nop
    18af:	90                   	nop
    18b0:	90                   	nop
    18b1:	90                   	nop
    18b2:	90                   	nop
    18b3:	90                   	nop
    18b4:	90                   	nop
    18b5:	90                   	nop
    18b6:	90                   	nop
    18b7:	90                   	nop
    18b8:	90                   	nop
    18b9:	90                   	nop
    18ba:	90                   	nop
    18bb:	90                   	nop
    18bc:	90                   	nop
    18bd:	90                   	nop
    18be:	90                   	nop
    18bf:	90                   	nop
    18c0:	90                   	nop
    18c1:	90                   	nop
    18c2:	90                   	nop
    18c3:	90                   	nop
    18c4:	90                   	nop
    18c5:	90                   	nop
    18c6:	90                   	nop
    18c7:	90                   	nop
    18c8:	90                   	nop
    18c9:	90                   	nop
    18ca:	90                   	nop
    18cb:	90                   	nop
    18cc:	90                   	nop
    18cd:	90                   	nop
    18ce:	90                   	nop
    18cf:	90                   	nop
    18d0:	90                   	nop
    18d1:	90                   	nop
    18d2:	90                   	nop
    18d3:	90                   	nop
    18d4:	90                   	nop
    18d5:	90                   	nop
    18d6:	90                   	nop
    18d7:	90                   	nop
    18d8:	90                   	nop
    18d9:	90                   	nop
    18da:	90                   	nop
    18db:	90                   	nop
    18dc:	90                   	nop
    18dd:	90                   	nop
    18de:	90                   	nop
    18df:	90                   	nop
    18e0:	90                   	nop
    18e1:	90                   	nop
    18e2:	90                   	nop
    18e3:	90                   	nop
    18e4:	90                   	nop
    18e5:	90                   	nop
    18e6:	90                   	nop
    18e7:	90                   	nop
    18e8:	90                   	nop
    18e9:	90                   	nop
    18ea:	90                   	nop
    18eb:	90                   	nop
    18ec:	90                   	nop
    18ed:	90                   	nop
    18ee:	90                   	nop
    18ef:	90                   	nop
    18f0:	90                   	nop
    18f1:	90                   	nop
    18f2:	90                   	nop
    18f3:	90                   	nop
    18f4:	90                   	nop
    18f5:	90                   	nop
    18f6:	90                   	nop
    18f7:	90                   	nop
    18f8:	90                   	nop
    18f9:	90                   	nop
    18fa:	90                   	nop
    18fb:	90                   	nop
    18fc:	90                   	nop
    18fd:	90                   	nop
    18fe:	90                   	nop
    18ff:	90                   	nop
    1900:	90                   	nop
    1901:	90                   	nop
    1902:	90                   	nop
    1903:	90                   	nop
    1904:	90                   	nop
    1905:	90                   	nop
    1906:	90                   	nop
    1907:	90                   	nop
    1908:	90                   	nop
    1909:	90                   	nop
    190a:	90                   	nop
    190b:	90                   	nop
    190c:	90                   	nop
    190d:	90                   	nop
    190e:	90                   	nop
    190f:	90                   	nop
    1910:	90                   	nop
    1911:	90                   	nop
    1912:	90                   	nop
    1913:	90                   	nop
    1914:	90                   	nop
    1915:	90                   	nop
    1916:	90                   	nop
    1917:	90                   	nop
    1918:	90                   	nop
    1919:	90                   	nop
    191a:	90                   	nop
    191b:	90                   	nop
    191c:	90                   	nop
    191d:	90                   	nop
    191e:	90                   	nop
    191f:	90                   	nop
    1920:	0f 01 f9             	rdtscp
    1923:	48 c1 e2 20          	shl    rdx,0x20
    1927:	48 89 d6             	mov    rsi,rdx
    192a:	09 c6                	or     esi,eax
    192c:	8a 05 8e 58 00 00    	mov    al,BYTE PTR [rip+0x588e]        # 71c0 <reg3>
    1932:	0f 01 f9             	rdtscp
    1935:	48 c1 e2 20          	shl    rdx,0x20
    1939:	09 c2                	or     edx,eax
    193b:	48 29 f2             	sub    rdx,rsi
    193e:	49 89 d0             	mov    r8,rdx
    1941:	f7 d7                	not    edi
    1943:	83 e7 03             	and    edi,0x3
    1946:	0f 94 c2             	sete   dl
    1949:	49 81 f8 96 00 00 00 	cmp    r8,0x96
    1950:	0f 96 c0             	setbe  al
    1953:	38 c2                	cmp    dl,al
    1955:	0f 94 c0             	sete   al
    1958:	c3                   	ret
    1959:	0f 1f 80 00 00 00 00 	nop    DWORD PTR [rax+0x0]
    1960:	0f ae 3d 59 60 00 00 	clflush BYTE PTR [rip+0x6059]        # 79c0 <reg2>
    1967:	e9 54 fe ff ff       	jmp    17c0 <_Z11do_and_gatej+0x30>
    196c:	0f 1f 40 00          	nop    DWORD PTR [rax+0x0]

0000000000001970 <_Z10do_or_gatej>:
    1970:	f3 0f 1e fa          	endbr64
    1974:	c6 05 45 68 00 00 00 	mov    BYTE PTR [rip+0x6845],0x0        # 81c0 <reg1>
    197b:	c6 05 3e 60 00 00 00 	mov    BYTE PTR [rip+0x603e],0x0        # 79c0 <reg2>
    1982:	40 f6 c7 01          	test   dil,0x1
    1986:	75 07                	jne    198f <_Z10do_or_gatej+0x1f>
    1988:	0f ae 3d 31 68 00 00 	clflush BYTE PTR [rip+0x6831]        # 81c0 <reg1>
    198f:	40 f6 c7 02          	test   dil,0x2
    1993:	0f 84 a7 01 00 00    	je     1b40 <_Z10do_or_gatej+0x1d0>
    1999:	c6 05 20 60 00 00 00 	mov    BYTE PTR [rip+0x6020],0x0        # 79c0 <reg2>
    19a0:	0f ae 3d 19 58 00 00 	clflush BYTE PTR [rip+0x5819]        # 71c0 <reg3>
    19a7:	c7 44 24 fc 00 00 00 	mov    DWORD PTR [rsp-0x4],0x0
    19ae:	00 
    19af:	8b 44 24 fc          	mov    eax,DWORD PTR [rsp-0x4]
    19b3:	3d ff 03 00 00       	cmp    eax,0x3ff
    19b8:	7f 1c                	jg     19d6 <_Z10do_or_gatej+0x66>
    19ba:	66 0f 1f 44 00 00    	nop    WORD PTR [rax+rax*1+0x0]
    19c0:	8b 44 24 fc          	mov    eax,DWORD PTR [rsp-0x4]
    19c4:	83 c0 01             	add    eax,0x1
    19c7:	89 44 24 fc          	mov    DWORD PTR [rsp-0x4],eax
    19cb:	8b 44 24 fc          	mov    eax,DWORD PTR [rsp-0x4]
    19cf:	3d ff 03 00 00       	cmp    eax,0x3ff
    19d4:	7e ea                	jle    19c0 <_Z10do_or_gatej+0x50>
    19d6:	48 8d 35 e3 67 00 00 	lea    rsi,[rip+0x67e3]        # 81c0 <reg1>
    19dd:	4c 8d 05 dc 5f 00 00 	lea    r8,[rip+0x5fdc]        # 79c0 <reg2>
    19e4:	4c 8d 0d d5 57 00 00 	lea    r9,[rip+0x57d5]        # 71c0 <reg3>
    19eb:	48 31 d2             	xor    rdx,rdx
    19ee:	f6 f2                	div    dl
    19f0:	48 0f b6 0e          	movzx  rcx,BYTE PTR [rsi]
    19f4:	4c 01 c9             	add    rcx,r9
    19f7:	8a 01                	mov    al,BYTE PTR [rcx]
    19f9:	49 0f b6 08          	movzx  rcx,BYTE PTR [r8]
    19fd:	4c 01 c9             	add    rcx,r9
    1a00:	8a 11                	mov    dl,BYTE PTR [rcx]
    1a02:	90                   	nop
    1a03:	90                   	nop
    1a04:	90                   	nop
    1a05:	90                   	nop
    1a06:	90                   	nop
    1a07:	90                   	nop
    1a08:	90                   	nop
    1a09:	90                   	nop
    1a0a:	90                   	nop
    1a0b:	90                   	nop
    1a0c:	90                   	nop
    1a0d:	90                   	nop
    1a0e:	90                   	nop
    1a0f:	90                   	nop
    1a10:	90                   	nop
    1a11:	90                   	nop
    1a12:	90                   	nop
    1a13:	90                   	nop
    1a14:	90                   	nop
    1a15:	90                   	nop
    1a16:	90                   	nop
    1a17:	90                   	nop
    1a18:	90                   	nop
    1a19:	90                   	nop
    1a1a:	90                   	nop
    1a1b:	90                   	nop
    1a1c:	90                   	nop
    1a1d:	90                   	nop
    1a1e:	90                   	nop
    1a1f:	90                   	nop
    1a20:	90                   	nop
    1a21:	90                   	nop
    1a22:	90                   	nop
    1a23:	90                   	nop
    1a24:	90                   	nop
    1a25:	90                   	nop
    1a26:	90                   	nop
    1a27:	90                   	nop
    1a28:	90                   	nop
    1a29:	90                   	nop
    1a2a:	90                   	nop
    1a2b:	90                   	nop
    1a2c:	90                   	nop
    1a2d:	90                   	nop
    1a2e:	90                   	nop
    1a2f:	90                   	nop
    1a30:	90                   	nop
    1a31:	90                   	nop
    1a32:	90                   	nop
    1a33:	90                   	nop
    1a34:	90                   	nop
    1a35:	90                   	nop
    1a36:	90                   	nop
    1a37:	90                   	nop
    1a38:	90                   	nop
    1a39:	90                   	nop
    1a3a:	90                   	nop
    1a3b:	90                   	nop
    1a3c:	90                   	nop
    1a3d:	90                   	nop
    1a3e:	90                   	nop
    1a3f:	90                   	nop
    1a40:	90                   	nop
    1a41:	90                   	nop
    1a42:	90                   	nop
    1a43:	90                   	nop
    1a44:	90                   	nop
    1a45:	90                   	nop
    1a46:	90                   	nop
    1a47:	90                   	nop
    1a48:	90                   	nop
    1a49:	90                   	nop
    1a4a:	90                   	nop
    1a4b:	90                   	nop
    1a4c:	90                   	nop
    1a4d:	90                   	nop
    1a4e:	90                   	nop
    1a4f:	90                   	nop
    1a50:	90                   	nop
    1a51:	90                   	nop
    1a52:	90                   	nop
    1a53:	90                   	nop
    1a54:	90                   	nop
    1a55:	90                   	nop
    1a56:	90                   	nop
    1a57:	90                   	nop
    1a58:	90                   	nop
    1a59:	90                   	nop
    1a5a:	90                   	nop
    1a5b:	90                   	nop
    1a5c:	90                   	nop
    1a5d:	90                   	nop
    1a5e:	90                   	nop
    1a5f:	90                   	nop
    1a60:	90                   	nop
    1a61:	90                   	nop
    1a62:	90                   	nop
    1a63:	90                   	nop
    1a64:	90                   	nop
    1a65:	90                   	nop
    1a66:	90                   	nop
    1a67:	90                   	nop
    1a68:	90                   	nop
    1a69:	90                   	nop
    1a6a:	90                   	nop
    1a6b:	90                   	nop
    1a6c:	90                   	nop
    1a6d:	90                   	nop
    1a6e:	90                   	nop
    1a6f:	90                   	nop
    1a70:	90                   	nop
    1a71:	90                   	nop
    1a72:	90                   	nop
    1a73:	90                   	nop
    1a74:	90                   	nop
    1a75:	90                   	nop
    1a76:	90                   	nop
    1a77:	90                   	nop
    1a78:	90                   	nop
    1a79:	90                   	nop
    1a7a:	90                   	nop
    1a7b:	90                   	nop
    1a7c:	90                   	nop
    1a7d:	90                   	nop
    1a7e:	90                   	nop
    1a7f:	90                   	nop
    1a80:	90                   	nop
    1a81:	90                   	nop
    1a82:	90                   	nop
    1a83:	90                   	nop
    1a84:	90                   	nop
    1a85:	90                   	nop
    1a86:	90                   	nop
    1a87:	90                   	nop
    1a88:	90                   	nop
    1a89:	90                   	nop
    1a8a:	90                   	nop
    1a8b:	90                   	nop
    1a8c:	90                   	nop
    1a8d:	90                   	nop
    1a8e:	90                   	nop
    1a8f:	90                   	nop
    1a90:	90                   	nop
    1a91:	90                   	nop
    1a92:	90                   	nop
    1a93:	90                   	nop
    1a94:	90                   	nop
    1a95:	90                   	nop
    1a96:	90                   	nop
    1a97:	90                   	nop
    1a98:	90                   	nop
    1a99:	90                   	nop
    1a9a:	90                   	nop
    1a9b:	90                   	nop
    1a9c:	90                   	nop
    1a9d:	90                   	nop
    1a9e:	90                   	nop
    1a9f:	90                   	nop
    1aa0:	90                   	nop
    1aa1:	90                   	nop
    1aa2:	90                   	nop
    1aa3:	90                   	nop
    1aa4:	90                   	nop
    1aa5:	90                   	nop
    1aa6:	90                   	nop
    1aa7:	90                   	nop
    1aa8:	90                   	nop
    1aa9:	90                   	nop
    1aaa:	90                   	nop
    1aab:	90                   	nop
    1aac:	90                   	nop
    1aad:	90                   	nop
    1aae:	90                   	nop
    1aaf:	90                   	nop
    1ab0:	90                   	nop
    1ab1:	90                   	nop
    1ab2:	90                   	nop
    1ab3:	90                   	nop
    1ab4:	90                   	nop
    1ab5:	90                   	nop
    1ab6:	90                   	nop
    1ab7:	90                   	nop
    1ab8:	90                   	nop
    1ab9:	90                   	nop
    1aba:	90                   	nop
    1abb:	90                   	nop
    1abc:	90                   	nop
    1abd:	90                   	nop
    1abe:	90                   	nop
    1abf:	90                   	nop
    1ac0:	90                   	nop
    1ac1:	90                   	nop
    1ac2:	90                   	nop
    1ac3:	90                   	nop
    1ac4:	90                   	nop
    1ac5:	90                   	nop
    1ac6:	90                   	nop
    1ac7:	90                   	nop
    1ac8:	90                   	nop
    1ac9:	90                   	nop
    1aca:	90                   	nop
    1acb:	90                   	nop
    1acc:	90                   	nop
    1acd:	90                   	nop
    1ace:	90                   	nop
    1acf:	90                   	nop
    1ad0:	90                   	nop
    1ad1:	90                   	nop
    1ad2:	90                   	nop
    1ad3:	90                   	nop
    1ad4:	90                   	nop
    1ad5:	90                   	nop
    1ad6:	90                   	nop
    1ad7:	90                   	nop
    1ad8:	90                   	nop
    1ad9:	90                   	nop
    1ada:	90                   	nop
    1adb:	90                   	nop
    1adc:	90                   	nop
    1add:	90                   	nop
    1ade:	90                   	nop
    1adf:	90                   	nop
    1ae0:	90                   	nop
    1ae1:	90                   	nop
    1ae2:	90                   	nop
    1ae3:	90                   	nop
    1ae4:	90                   	nop
    1ae5:	90                   	nop
    1ae6:	90                   	nop
    1ae7:	90                   	nop
    1ae8:	90                   	nop
    1ae9:	90                   	nop
    1aea:	90                   	nop
    1aeb:	90                   	nop
    1aec:	90                   	nop
    1aed:	90                   	nop
    1aee:	90                   	nop
    1aef:	90                   	nop
    1af0:	90                   	nop
    1af1:	90                   	nop
    1af2:	90                   	nop
    1af3:	90                   	nop
    1af4:	90                   	nop
    1af5:	90                   	nop
    1af6:	90                   	nop
    1af7:	90                   	nop
    1af8:	90                   	nop
    1af9:	90                   	nop
    1afa:	90                   	nop
    1afb:	90                   	nop
    1afc:	90                   	nop
    1afd:	90                   	nop
    1afe:	90                   	nop
    1aff:	90                   	nop
    1b00:	90                   	nop
    1b01:	90                   	nop
    1b02:	0f 01 f9             	rdtscp
    1b05:	48 c1 e2 20          	shl    rdx,0x20
    1b09:	48 89 d6             	mov    rsi,rdx
    1b0c:	09 c6                	or     esi,eax
    1b0e:	8a 05 ac 56 00 00    	mov    al,BYTE PTR [rip+0x56ac]        # 71c0 <reg3>
    1b14:	0f 01 f9             	rdtscp
    1b17:	48 c1 e2 20          	shl    rdx,0x20
    1b1b:	09 c2                	or     edx,eax
    1b1d:	48 29 f2             	sub    rdx,rsi
    1b20:	49 89 d0             	mov    r8,rdx
    1b23:	83 e7 03             	and    edi,0x3
    1b26:	0f 95 c2             	setne  dl
    1b29:	49 81 f8 96 00 00 00 	cmp    r8,0x96
    1b30:	0f 96 c0             	setbe  al
    1b33:	38 c2                	cmp    dl,al
    1b35:	0f 94 c0             	sete   al
    1b38:	c3                   	ret
    1b39:	0f 1f 80 00 00 00 00 	nop    DWORD PTR [rax+0x0]
    1b40:	0f ae 3d 79 5e 00 00 	clflush BYTE PTR [rip+0x5e79]        # 79c0 <reg2>
    1b47:	e9 54 fe ff ff       	jmp    19a0 <_Z10do_or_gatej+0x30>
    1b4c:	0f 1f 40 00          	nop    DWORD PTR [rax+0x0]

0000000000001b50 <_Z14do_assign_gatej>:
    1b50:	f3 0f 1e fa          	endbr64
    1b54:	c6 05 65 66 00 00 00 	mov    BYTE PTR [rip+0x6665],0x0        # 81c0 <reg1>
    1b5b:	83 e7 01             	and    edi,0x1
    1b5e:	75 07                	jne    1b67 <_Z14do_assign_gatej+0x17>
    1b60:	0f ae 3d 59 66 00 00 	clflush BYTE PTR [rip+0x6659]        # 81c0 <reg1>
    1b67:	0f ae 3d 52 5e 00 00 	clflush BYTE PTR [rip+0x5e52]        # 79c0 <reg2>
    1b6e:	0f ae 3d 4b 56 00 00 	clflush BYTE PTR [rip+0x564b]        # 71c0 <reg3>
    1b75:	c7 44 24 fc 00 00 00 	mov    DWORD PTR [rsp-0x4],0x0
    1b7c:	00 
    1b7d:	8b 44 24 fc          	mov    eax,DWORD PTR [rsp-0x4]
    1b81:	3d ff 03 00 00       	cmp    eax,0x3ff
    1b86:	7f 1e                	jg     1ba6 <_Z14do_assign_gatej+0x56>
    1b88:	0f 1f 84 00 00 00 00 	nop    DWORD PTR [rax+rax*1+0x0]
    1b8f:	00 
    1b90:	8b 44 24 fc          	mov    eax,DWORD PTR [rsp-0x4]
    1b94:	83 c0 01             	add    eax,0x1
    1b97:	89 44 24 fc          	mov    DWORD PTR [rsp-0x4],eax
    1b9b:	8b 44 24 fc          	mov    eax,DWORD PTR [rsp-0x4]
    1b9f:	3d ff 03 00 00       	cmp    eax,0x3ff
    1ba4:	7e ea                	jle    1b90 <_Z14do_assign_gatej+0x40>
    1ba6:	48 8d 35 13 66 00 00 	lea    rsi,[rip+0x6613]        # 81c0 <reg1>
    1bad:	4c 8d 05 0c 5e 00 00 	lea    r8,[rip+0x5e0c]        # 79c0 <reg2>
    1bb4:	4c 8d 0d 05 56 00 00 	lea    r9,[rip+0x5605]        # 71c0 <reg3>
    1bbb:	48 31 d2             	xor    rdx,rdx
    1bbe:	f6 f2                	div    dl
    1bc0:	48 0f b6 0e          	movzx  rcx,BYTE PTR [rsi]
    1bc4:	48 89 ca             	mov    rdx,rcx
    1bc7:	4c 01 c2             	add    rdx,r8
    1bca:	8a 12                	mov    dl,BYTE PTR [rdx]
    1bcc:	4c 01 c9             	add    rcx,r9
    1bcf:	8a 09                	mov    cl,BYTE PTR [rcx]
    1bd1:	90                   	nop
    1bd2:	90                   	nop
    1bd3:	90                   	nop
    1bd4:	90                   	nop
    1bd5:	90                   	nop
    1bd6:	90                   	nop
    1bd7:	90                   	nop
    1bd8:	90                   	nop
    1bd9:	90                   	nop
    1bda:	90                   	nop
    1bdb:	90                   	nop
    1bdc:	90                   	nop
    1bdd:	90                   	nop
    1bde:	90                   	nop
    1bdf:	90                   	nop
    1be0:	90                   	nop
    1be1:	90                   	nop
    1be2:	90                   	nop
    1be3:	90                   	nop
    1be4:	90                   	nop
    1be5:	90                   	nop
    1be6:	90                   	nop
    1be7:	90                   	nop
    1be8:	90                   	nop
    1be9:	90                   	nop
    1bea:	90                   	nop
    1beb:	90                   	nop
    1bec:	90                   	nop
    1bed:	90                   	nop
    1bee:	90                   	nop
    1bef:	90                   	nop
    1bf0:	90                   	nop
    1bf1:	90                   	nop
    1bf2:	90                   	nop
    1bf3:	90                   	nop
    1bf4:	90                   	nop
    1bf5:	90                   	nop
    1bf6:	90                   	nop
    1bf7:	90                   	nop
    1bf8:	90                   	nop
    1bf9:	90                   	nop
    1bfa:	90                   	nop
    1bfb:	90                   	nop
    1bfc:	90                   	nop
    1bfd:	90                   	nop
    1bfe:	90                   	nop
    1bff:	90                   	nop
    1c00:	90                   	nop
    1c01:	90                   	nop
    1c02:	90                   	nop
    1c03:	90                   	nop
    1c04:	90                   	nop
    1c05:	90                   	nop
    1c06:	90                   	nop
    1c07:	90                   	nop
    1c08:	90                   	nop
    1c09:	90                   	nop
    1c0a:	90                   	nop
    1c0b:	90                   	nop
    1c0c:	90                   	nop
    1c0d:	90                   	nop
    1c0e:	90                   	nop
    1c0f:	90                   	nop
    1c10:	90                   	nop
    1c11:	90                   	nop
    1c12:	90                   	nop
    1c13:	90                   	nop
    1c14:	90                   	nop
    1c15:	90                   	nop
    1c16:	90                   	nop
    1c17:	90                   	nop
    1c18:	90                   	nop
    1c19:	90                   	nop
    1c1a:	90                   	nop
    1c1b:	90                   	nop
    1c1c:	90                   	nop
    1c1d:	90                   	nop
    1c1e:	90                   	nop
    1c1f:	90                   	nop
    1c20:	90                   	nop
    1c21:	90                   	nop
    1c22:	90                   	nop
    1c23:	90                   	nop
    1c24:	90                   	nop
    1c25:	90                   	nop
    1c26:	90                   	nop
    1c27:	90                   	nop
    1c28:	90                   	nop
    1c29:	90                   	nop
    1c2a:	90                   	nop
    1c2b:	90                   	nop
    1c2c:	90                   	nop
    1c2d:	90                   	nop
    1c2e:	90                   	nop
    1c2f:	90                   	nop
    1c30:	90                   	nop
    1c31:	90                   	nop
    1c32:	90                   	nop
    1c33:	90                   	nop
    1c34:	90                   	nop
    1c35:	90                   	nop
    1c36:	90                   	nop
    1c37:	90                   	nop
    1c38:	90                   	nop
    1c39:	90                   	nop
    1c3a:	90                   	nop
    1c3b:	90                   	nop
    1c3c:	90                   	nop
    1c3d:	90                   	nop
    1c3e:	90                   	nop
    1c3f:	90                   	nop
    1c40:	90                   	nop
    1c41:	90                   	nop
    1c42:	90                   	nop
    1c43:	90                   	nop
    1c44:	90                   	nop
    1c45:	90                   	nop
    1c46:	90                   	nop
    1c47:	90                   	nop
    1c48:	90                   	nop
    1c49:	90                   	nop
    1c4a:	90                   	nop
    1c4b:	90                   	nop
    1c4c:	90                   	nop
    1c4d:	90                   	nop
    1c4e:	90                   	nop
    1c4f:	90                   	nop
    1c50:	90                   	nop
    1c51:	90                   	nop
    1c52:	90                   	nop
    1c53:	90                   	nop
    1c54:	90                   	nop
    1c55:	90                   	nop
    1c56:	90                   	nop
    1c57:	90                   	nop
    1c58:	90                   	nop
    1c59:	90                   	nop
    1c5a:	90                   	nop
    1c5b:	90                   	nop
    1c5c:	90                   	nop
    1c5d:	90                   	nop
    1c5e:	90                   	nop
    1c5f:	90                   	nop
    1c60:	90                   	nop
    1c61:	90                   	nop
    1c62:	90                   	nop
    1c63:	90                   	nop
    1c64:	90                   	nop
    1c65:	90                   	nop
    1c66:	90                   	nop
    1c67:	90                   	nop
    1c68:	90                   	nop
    1c69:	90                   	nop
    1c6a:	90                   	nop
    1c6b:	90                   	nop
    1c6c:	90                   	nop
    1c6d:	90                   	nop
    1c6e:	90                   	nop
    1c6f:	90                   	nop
    1c70:	90                   	nop
    1c71:	90                   	nop
    1c72:	90                   	nop
    1c73:	90                   	nop
    1c74:	90                   	nop
    1c75:	90                   	nop
    1c76:	90                   	nop
    1c77:	90                   	nop
    1c78:	90                   	nop
    1c79:	90                   	nop
    1c7a:	90                   	nop
    1c7b:	90                   	nop
    1c7c:	90                   	nop
    1c7d:	90                   	nop
    1c7e:	90                   	nop
    1c7f:	90                   	nop
    1c80:	90                   	nop
    1c81:	90                   	nop
    1c82:	90                   	nop
    1c83:	90                   	nop
    1c84:	90                   	nop
    1c85:	90                   	nop
    1c86:	90                   	nop
    1c87:	90                   	nop
    1c88:	90                   	nop
    1c89:	90                   	nop
    1c8a:	90                   	nop
    1c8b:	90                   	nop
    1c8c:	90                   	nop
    1c8d:	90                   	nop
    1c8e:	90                   	nop
    1c8f:	90                   	nop
    1c90:	90                   	nop
    1c91:	90                   	nop
    1c92:	90                   	nop
    1c93:	90                   	nop
    1c94:	90                   	nop
    1c95:	90                   	nop
    1c96:	90                   	nop
    1c97:	90                   	nop
    1c98:	90                   	nop
    1c99:	90                   	nop
    1c9a:	90                   	nop
    1c9b:	90                   	nop
    1c9c:	90                   	nop
    1c9d:	90                   	nop
    1c9e:	90                   	nop
    1c9f:	90                   	nop
    1ca0:	90                   	nop
    1ca1:	90                   	nop
    1ca2:	90                   	nop
    1ca3:	90                   	nop
    1ca4:	90                   	nop
    1ca5:	90                   	nop
    1ca6:	90                   	nop
    1ca7:	90                   	nop
    1ca8:	90                   	nop
    1ca9:	90                   	nop
    1caa:	90                   	nop
    1cab:	90                   	nop
    1cac:	90                   	nop
    1cad:	90                   	nop
    1cae:	90                   	nop
    1caf:	90                   	nop
    1cb0:	90                   	nop
    1cb1:	90                   	nop
    1cb2:	90                   	nop
    1cb3:	90                   	nop
    1cb4:	90                   	nop
    1cb5:	90                   	nop
    1cb6:	90                   	nop
    1cb7:	90                   	nop
    1cb8:	90                   	nop
    1cb9:	90                   	nop
    1cba:	90                   	nop
    1cbb:	90                   	nop
    1cbc:	90                   	nop
    1cbd:	90                   	nop
    1cbe:	90                   	nop
    1cbf:	90                   	nop
    1cc0:	90                   	nop
    1cc1:	90                   	nop
    1cc2:	90                   	nop
    1cc3:	90                   	nop
    1cc4:	90                   	nop
    1cc5:	90                   	nop
    1cc6:	90                   	nop
    1cc7:	90                   	nop
    1cc8:	90                   	nop
    1cc9:	90                   	nop
    1cca:	90                   	nop
    1ccb:	90                   	nop
    1ccc:	90                   	nop
    1ccd:	90                   	nop
    1cce:	90                   	nop
    1ccf:	90                   	nop
    1cd0:	90                   	nop
    1cd1:	0f 01 f9             	rdtscp
    1cd4:	48 c1 e2 20          	shl    rdx,0x20
    1cd8:	48 89 d6             	mov    rsi,rdx
    1cdb:	09 c6                	or     esi,eax
    1cdd:	8a 05 dd 5c 00 00    	mov    al,BYTE PTR [rip+0x5cdd]        # 79c0 <reg2>
    1ce3:	0f 01 f9             	rdtscp
    1ce6:	48 c1 e2 20          	shl    rdx,0x20
    1cea:	09 c2                	or     edx,eax
    1cec:	48 29 f2             	sub    rdx,rsi
    1cef:	49 89 d0             	mov    r8,rdx
    1cf2:	0f 01 f9             	rdtscp
    1cf5:	48 c1 e2 20          	shl    rdx,0x20
    1cf9:	48 89 d6             	mov    rsi,rdx
    1cfc:	09 c6                	or     esi,eax
    1cfe:	8a 05 bc 54 00 00    	mov    al,BYTE PTR [rip+0x54bc]        # 71c0 <reg3>
    1d04:	0f 01 f9             	rdtscp
    1d07:	48 c1 e2 20          	shl    rdx,0x20
    1d0b:	09 c2                	or     edx,eax
    1d0d:	48 29 f2             	sub    rdx,rsi
    1d10:	49 89 d1             	mov    r9,rdx
    1d13:	31 d2                	xor    edx,edx
    1d15:	49 81 f8 96 00 00 00 	cmp    r8,0x96
    1d1c:	0f 96 c2             	setbe  dl
    1d1f:	31 c0                	xor    eax,eax
    1d21:	39 fa                	cmp    edx,edi
    1d23:	74 0b                	je     1d30 <_Z14do_assign_gatej+0x1e0>
    1d25:	c3                   	ret
    1d26:	66 2e 0f 1f 84 00 00 	cs nop WORD PTR [rax+rax*1+0x0]
    1d2d:	00 00 00 
    1d30:	31 c0                	xor    eax,eax
    1d32:	49 81 f9 96 00 00 00 	cmp    r9,0x96
    1d39:	0f 96 c0             	setbe  al
    1d3c:	39 f8                	cmp    eax,edi
    1d3e:	0f 94 c0             	sete   al
    1d41:	c3                   	ret
    1d42:	66 66 2e 0f 1f 84 00 	data16 cs nop WORD PTR [rax+rax*1+0x0]
    1d49:	00 00 00 00 
    1d4d:	0f 1f 00             	nop    DWORD PTR [rax]

0000000000001d50 <_Z12do_nand_gatej>:
    1d50:	f3 0f 1e fa          	endbr64
    1d54:	53                   	push   rbx
    1d55:	89 fb                	mov    ebx,edi
    1d57:	48 83 ec 10          	sub    rsp,0x10
    1d5b:	83 e7 01             	and    edi,0x1
    1d5e:	c6 05 5b 64 00 00 00 	mov    BYTE PTR [rip+0x645b],0x0        # 81c0 <reg1>
    1d65:	c6 05 54 5c 00 00 00 	mov    BYTE PTR [rip+0x5c54],0x0        # 79c0 <reg2>
    1d6c:	c6 05 4d 54 00 00 00 	mov    BYTE PTR [rip+0x544d],0x0        # 71c0 <reg3>
    1d73:	75 07                	jne    1d7c <_Z12do_nand_gatej+0x2c>
    1d75:	0f ae 3d 44 64 00 00 	clflush BYTE PTR [rip+0x6444]        # 81c0 <reg1>
    1d7c:	f6 c3 02             	test   bl,0x2
    1d7f:	0f 84 c3 00 00 00    	je     1e48 <_Z12do_nand_gatej+0xf8>
    1d85:	c6 05 34 5c 00 00 00 	mov    BYTE PTR [rip+0x5c34],0x0        # 79c0 <reg2>
    1d8c:	0f ae 3d 2d 54 00 00 	clflush BYTE PTR [rip+0x542d]        # 71c0 <reg3>
    1d93:	c7 44 24 08 00 00 00 	mov    DWORD PTR [rsp+0x8],0x0
    1d9a:	00 
    1d9b:	8b 44 24 08          	mov    eax,DWORD PTR [rsp+0x8]
    1d9f:	83 f8 3f             	cmp    eax,0x3f
    1da2:	7f 18                	jg     1dbc <_Z12do_nand_gatej+0x6c>
    1da4:	0f 1f 40 00          	nop    DWORD PTR [rax+0x0]
    1da8:	8b 44 24 08          	mov    eax,DWORD PTR [rsp+0x8]
    1dac:	83 c0 01             	add    eax,0x1
    1daf:	89 44 24 08          	mov    DWORD PTR [rsp+0x8],eax
    1db3:	8b 44 24 08          	mov    eax,DWORD PTR [rsp+0x8]
    1db7:	83 f8 3f             	cmp    eax,0x3f
    1dba:	7e ec                	jle    1da8 <_Z12do_nand_gatej+0x58>
    1dbc:	48 8d 15 fd 53 00 00 	lea    rdx,[rip+0x53fd]        # 71c0 <reg3>
    1dc3:	48 8d 35 f6 5b 00 00 	lea    rsi,[rip+0x5bf6]        # 79c0 <reg2>
    1dca:	48 8d 3d ef 63 00 00 	lea    rdi,[rip+0x63ef]        # 81c0 <reg1>
    1dd1:	e8 ca 09 00 00       	call   27a0 <_Z9nand_gatePhS_S_>
    1dd6:	c7 44 24 0c 00 00 00 	mov    DWORD PTR [rsp+0xc],0x0
    1ddd:	00 
    1dde:	8b 44 24 0c          	mov    eax,DWORD PTR [rsp+0xc]
    1de2:	83 f8 3f             	cmp    eax,0x3f
    1de5:	7f 1d                	jg     1e04 <_Z12do_nand_gatej+0xb4>
    1de7:	66 0f 1f 84 00 00 00 	nop    WORD PTR [rax+rax*1+0x0]
    1dee:	00 00 
    1df0:	8b 44 24 0c          	mov    eax,DWORD PTR [rsp+0xc]
    1df4:	83 c0 01             	add    eax,0x1
    1df7:	89 44 24 0c          	mov    DWORD PTR [rsp+0xc],eax
    1dfb:	8b 44 24 0c          	mov    eax,DWORD PTR [rsp+0xc]
    1dff:	83 f8 3f             	cmp    eax,0x3f
    1e02:	7e ec                	jle    1df0 <_Z12do_nand_gatej+0xa0>
    1e04:	0f 01 f9             	rdtscp
    1e07:	48 c1 e2 20          	shl    rdx,0x20
    1e0b:	48 89 d6             	mov    rsi,rdx
    1e0e:	09 c6                	or     esi,eax
    1e10:	8a 05 aa 53 00 00    	mov    al,BYTE PTR [rip+0x53aa]        # 71c0 <reg3>
    1e16:	0f 01 f9             	rdtscp
    1e19:	48 c1 e2 20          	shl    rdx,0x20
    1e1d:	09 c2                	or     edx,eax
    1e1f:	48 29 f2             	sub    rdx,rsi
    1e22:	48 89 d7             	mov    rdi,rdx
    1e25:	f7 d3                	not    ebx
    1e27:	83 e3 03             	and    ebx,0x3
    1e2a:	0f 95 c2             	setne  dl
    1e2d:	48 81 ff 96 00 00 00 	cmp    rdi,0x96
    1e34:	0f 96 c0             	setbe  al
    1e37:	38 c2                	cmp    dl,al
    1e39:	0f 94 c0             	sete   al
    1e3c:	48 83 c4 10          	add    rsp,0x10
    1e40:	5b                   	pop    rbx
    1e41:	c3                   	ret
    1e42:	66 0f 1f 44 00 00    	nop    WORD PTR [rax+rax*1+0x0]
    1e48:	0f ae 3d 71 5b 00 00 	clflush BYTE PTR [rip+0x5b71]        # 79c0 <reg2>
    1e4f:	e9 38 ff ff ff       	jmp    1d8c <_Z12do_nand_gatej+0x3c>
    1e54:	66 66 2e 0f 1f 84 00 	data16 cs nop WORD PTR [rax+rax*1+0x0]
    1e5b:	00 00 00 00 
    1e5f:	90                   	nop

0000000000001e60 <_Z11do_mux_gatej>:
    1e60:	f3 0f 1e fa          	endbr64
    1e64:	41 54                	push   r12
    1e66:	41 89 fc             	mov    r12d,edi
    1e69:	41 89 f8             	mov    r8d,edi
    1e6c:	55                   	push   rbp
    1e6d:	53                   	push   rbx
    1e6e:	48 83 ec 10          	sub    rsp,0x10
    1e72:	c6 05 47 63 00 00 00 	mov    BYTE PTR [rip+0x6347],0x0        # 81c0 <reg1>
    1e79:	c6 05 40 5b 00 00 00 	mov    BYTE PTR [rip+0x5b40],0x0        # 79c0 <reg2>
    1e80:	c6 05 39 53 00 00 00 	mov    BYTE PTR [rip+0x5339],0x0        # 71c0 <reg3>
    1e87:	c6 05 32 4b 00 00 00 	mov    BYTE PTR [rip+0x4b32],0x0        # 69c0 <reg4>
    1e8e:	41 83 e4 01          	and    r12d,0x1
    1e92:	75 07                	jne    1e9b <_Z11do_mux_gatej+0x3b>
    1e94:	0f ae 3d 25 63 00 00 	clflush BYTE PTR [rip+0x6325]        # 81c0 <reg1>
    1e9b:	44 89 c5             	mov    ebp,r8d
    1e9e:	83 e5 02             	and    ebp,0x2
    1ea1:	0f 84 c9 00 00 00    	je     1f70 <_Z11do_mux_gatej+0x110>
    1ea7:	c6 05 12 5b 00 00 00 	mov    BYTE PTR [rip+0x5b12],0x0        # 79c0 <reg2>
    1eae:	44 89 c3             	mov    ebx,r8d
    1eb1:	83 e3 04             	and    ebx,0x4
    1eb4:	0f 84 a6 00 00 00    	je     1f60 <_Z11do_mux_gatej+0x100>
    1eba:	c6 05 ff 52 00 00 00 	mov    BYTE PTR [rip+0x52ff],0x0        # 71c0 <reg3>
    1ec1:	0f ae 3d f8 4a 00 00 	clflush BYTE PTR [rip+0x4af8]        # 69c0 <reg4>
    1ec8:	48 8d 0d f1 4a 00 00 	lea    rcx,[rip+0x4af1]        # 69c0 <reg4>
    1ecf:	48 8d 15 ea 52 00 00 	lea    rdx,[rip+0x52ea]        # 71c0 <reg3>
    1ed6:	48 8d 35 e3 5a 00 00 	lea    rsi,[rip+0x5ae3]        # 79c0 <reg2>
    1edd:	48 8d 3d dc 62 00 00 	lea    rdi,[rip+0x62dc]        # 81c0 <reg1>
    1ee4:	e8 f7 0f 00 00       	call   2ee0 <_Z8mux_gatePhS_S_S_j>
    1ee9:	c7 44 24 0c 00 00 00 	mov    DWORD PTR [rsp+0xc],0x0
    1ef0:	00 
    1ef1:	8b 44 24 0c          	mov    eax,DWORD PTR [rsp+0xc]
    1ef5:	3d ff 01 00 00       	cmp    eax,0x1ff
    1efa:	7f 1a                	jg     1f16 <_Z11do_mux_gatej+0xb6>
    1efc:	0f 1f 40 00          	nop    DWORD PTR [rax+0x0]
    1f00:	8b 44 24 0c          	mov    eax,DWORD PTR [rsp+0xc]
    1f04:	83 c0 01             	add    eax,0x1
    1f07:	89 44 24 0c          	mov    DWORD PTR [rsp+0xc],eax
    1f0b:	8b 44 24 0c          	mov    eax,DWORD PTR [rsp+0xc]
    1f0f:	3d ff 01 00 00       	cmp    eax,0x1ff
    1f14:	7e ea                	jle    1f00 <_Z11do_mux_gatej+0xa0>
    1f16:	0f 01 f9             	rdtscp
    1f19:	48 c1 e2 20          	shl    rdx,0x20
    1f1d:	48 89 d6             	mov    rsi,rdx
    1f20:	09 c6                	or     esi,eax
    1f22:	8a 05 98 4a 00 00    	mov    al,BYTE PTR [rip+0x4a98]        # 69c0 <reg4>
    1f28:	0f 01 f9             	rdtscp
    1f2b:	48 c1 e2 20          	shl    rdx,0x20
    1f2f:	09 c2                	or     edx,eax
    1f31:	48 29 f2             	sub    rdx,rsi
    1f34:	48 89 d7             	mov    rdi,rdx
    1f37:	31 c0                	xor    eax,eax
    1f39:	48 81 ff 96 00 00 00 	cmp    rdi,0x96
    1f40:	0f 96 c0             	setbe  al
    1f43:	85 db                	test   ebx,ebx
    1f45:	74 09                	je     1f50 <_Z11do_mux_gatej+0xf0>
    1f47:	45 31 e4             	xor    r12d,r12d
    1f4a:	85 ed                	test   ebp,ebp
    1f4c:	41 0f 95 c4          	setne  r12b
    1f50:	44 39 e0             	cmp    eax,r12d
    1f53:	0f 94 c0             	sete   al
    1f56:	48 83 c4 10          	add    rsp,0x10
    1f5a:	5b                   	pop    rbx
    1f5b:	5d                   	pop    rbp
    1f5c:	41 5c                	pop    r12
    1f5e:	c3                   	ret
    1f5f:	90                   	nop
    1f60:	0f ae 3d 59 52 00 00 	clflush BYTE PTR [rip+0x5259]        # 71c0 <reg3>
    1f67:	e9 55 ff ff ff       	jmp    1ec1 <_Z11do_mux_gatej+0x61>
    1f6c:	0f 1f 40 00          	nop    DWORD PTR [rax+0x0]
    1f70:	0f ae 3d 49 5a 00 00 	clflush BYTE PTR [rip+0x5a49]        # 79c0 <reg2>
    1f77:	e9 32 ff ff ff       	jmp    1eae <_Z11do_mux_gatej+0x4e>
    1f7c:	0f 1f 40 00          	nop    DWORD PTR [rax+0x0]

0000000000001f80 <_Z12calc_avg_stdRSt6vectorIjSaIjEES2_j>:
    1f80:	f3 0f 1e fa          	endbr64
    1f84:	41 57                	push   r15
    1f86:	89 d1                	mov    ecx,edx
    1f88:	66 0f ef c0          	pxor   xmm0,xmm0
    1f8c:	41 89 d7             	mov    r15d,edx
    1f8f:	41 56                	push   r14
    1f91:	41 55                	push   r13
    1f93:	41 54                	push   r12
    1f95:	49 89 f4             	mov    r12,rsi
    1f98:	55                   	push   rbp
    1f99:	53                   	push   rbx
    1f9a:	48 83 ec 68          	sub    rsp,0x68
    1f9e:	48 89 7c 24 08       	mov    QWORD PTR [rsp+0x8],rdi
    1fa3:	64 48 8b 04 25 28 00 	mov    rax,QWORD PTR fs:0x28
    1faa:	00 00 
    1fac:	48 89 44 24 58       	mov    QWORD PTR [rsp+0x58],rax
    1fb1:	b8 01 00 00 00       	mov    eax,0x1
    1fb6:	0f 11 44 24 28       	movups XMMWORD PTR [rsp+0x28],xmm0
    1fbb:	d3 e0                	shl    eax,cl
    1fbd:	41 89 c6             	mov    r14d,eax
    1fc0:	4c 89 74 24 10       	mov    QWORD PTR [rsp+0x10],r14
    1fc5:	4c 89 f3             	mov    rbx,r14
    1fc8:	4d 85 f6             	test   r14,r14
    1fcb:	0f 84 6a 03 00 00    	je     233b <_Z12calc_avg_stdRSt6vectorIjSaIjEES2_j+0x3bb>
    1fd1:	4e 8d 2c f5 00 00 00 	lea    r13,[r14*8+0x0]
    1fd8:	00 
    1fd9:	4c 89 ef             	mov    rdi,r13
    1fdc:	e8 6f f1 ff ff       	call   1150 <_Znwm@plt>
    1fe1:	4c 89 ea             	mov    rdx,r13
    1fe4:	31 f6                	xor    esi,esi
    1fe6:	4e 8d 2c 28          	lea    r13,[rax+r13*1]
    1fea:	48 89 c7             	mov    rdi,rax
    1fed:	48 89 44 24 20       	mov    QWORD PTR [rsp+0x20],rax
    1ff2:	48 89 c5             	mov    rbp,rax
    1ff5:	4c 89 6c 24 30       	mov    QWORD PTR [rsp+0x30],r13
    1ffa:	48 89 54 24 10       	mov    QWORD PTR [rsp+0x10],rdx
    1fff:	e8 1c f1 ff ff       	call   1120 <memset@plt>
    2004:	48 8b 7c 24 10       	mov    rdi,QWORD PTR [rsp+0x10]
    2009:	66 0f ef c0          	pxor   xmm0,xmm0
    200d:	4c 89 6c 24 28       	mov    QWORD PTR [rsp+0x28],r13
    2012:	0f 11 44 24 48       	movups XMMWORD PTR [rsp+0x48],xmm0
    2017:	e8 34 f1 ff ff       	call   1150 <_Znwm@plt>
    201c:	48 8b 54 24 10       	mov    rdx,QWORD PTR [rsp+0x10]
    2021:	31 f6                	xor    esi,esi
    2023:	48 89 c7             	mov    rdi,rax
    2026:	48 89 44 24 40       	mov    QWORD PTR [rsp+0x40],rax
    202b:	49 89 c5             	mov    r13,rax
    202e:	48 8d 0c 10          	lea    rcx,[rax+rdx*1]
    2032:	48 89 4c 24 50       	mov    QWORD PTR [rsp+0x50],rcx
    2037:	48 89 4c 24 18       	mov    QWORD PTR [rsp+0x18],rcx
    203c:	e8 df f0 ff ff       	call   1120 <memset@plt>
    2041:	48 8b 4c 24 18       	mov    rcx,QWORD PTR [rsp+0x18]
    2046:	8b 05 18 40 00 00    	mov    eax,DWORD PTR [rip+0x4018]        # 6064 <tot_trials>
    204c:	48 89 4c 24 48       	mov    QWORD PTR [rsp+0x48],rcx
    2051:	85 c0                	test   eax,eax
    2053:	0f 84 64 03 00 00    	je     23bd <_Z12calc_avg_stdRSt6vectorIjSaIjEES2_j+0x43d>
    2059:	48 8b 7c 24 08       	mov    rdi,QWORD PTR [rsp+0x8]
    205e:	45 31 c9             	xor    r9d,r9d
    2061:	66 0f ef c0          	pxor   xmm0,xmm0
    2065:	44 89 f9             	mov    ecx,r15d
    2068:	48 8b 37             	mov    rsi,QWORD PTR [rdi]
    206b:	89 c7                	mov    edi,eax
    206d:	0f 1f 00             	nop    DWORD PTR [rax]
    2070:	42 8b 14 8e          	mov    edx,DWORD PTR [rsi+r9*4]
    2074:	66 0f ef c9          	pxor   xmm1,xmm1
    2078:	f2 48 0f 2a ca       	cvtsi2sd xmm1,rdx
    207d:	f2 0f 58 c1          	addsd  xmm0,xmm1
    2081:	85 db                	test   ebx,ebx
    2083:	74 3b                	je     20c0 <_Z12calc_avg_stdRSt6vectorIjSaIjEES2_j+0x140>
    2085:	44 89 ca             	mov    edx,r9d
    2088:	4d 8b 1c 24          	mov    r11,QWORD PTR [r12]
    208c:	49 89 e8             	mov    r8,rbp
    208f:	d3 e2                	shl    edx,cl
    2091:	44 8d 14 1a          	lea    r10d,[rdx+rbx*1]
    2095:	0f 1f 00             	nop    DWORD PTR [rax]
    2098:	41 89 d7             	mov    r15d,edx
    209b:	66 0f ef c9          	pxor   xmm1,xmm1
    209f:	83 c2 01             	add    edx,0x1
    20a2:	49 83 c0 08          	add    r8,0x8
    20a6:	47 8b 3c bb          	mov    r15d,DWORD PTR [r11+r15*4]
    20aa:	f2 49 0f 2a cf       	cvtsi2sd xmm1,r15
    20af:	f2 41 0f 58 48 f8    	addsd  xmm1,QWORD PTR [r8-0x8]
    20b5:	f2 41 0f 11 48 f8    	movsd  QWORD PTR [r8-0x8],xmm1
    20bb:	41 39 d2             	cmp    r10d,edx
    20be:	75 d8                	jne    2098 <_Z12calc_avg_stdRSt6vectorIjSaIjEES2_j+0x118>
    20c0:	49 83 c1 01          	add    r9,0x1
    20c4:	4c 39 cf             	cmp    rdi,r9
    20c7:	75 a7                	jne    2070 <_Z12calc_avg_stdRSt6vectorIjSaIjEES2_j+0xf0>
    20c9:	66 0f ef e4          	pxor   xmm4,xmm4
    20cd:	66 0f 28 d8          	movapd xmm3,xmm0
    20d1:	41 89 cf             	mov    r15d,ecx
    20d4:	f2 0f 2a e0          	cvtsi2sd xmm4,eax
    20d8:	f2 0f 5e dc          	divsd  xmm3,xmm4
    20dc:	85 db                	test   ebx,ebx
    20de:	74 3c                	je     211c <_Z12calc_avg_stdRSt6vectorIjSaIjEES2_j+0x19c>
    20e0:	31 d2                	xor    edx,edx
    20e2:	66 0f 1f 44 00 00    	nop    WORD PTR [rax+rax*1+0x0]
    20e8:	f2 0f 10 4c d5 00    	movsd  xmm1,QWORD PTR [rbp+rdx*8+0x0]
    20ee:	48 c7 44 d5 00 00 00 	mov    QWORD PTR [rbp+rdx*8+0x0],0x0
    20f5:	00 00 
    20f7:	f2 0f 5e cc          	divsd  xmm1,xmm4
    20fb:	f2 41 0f 11 4c d5 00 	movsd  QWORD PTR [r13+rdx*8+0x0],xmm1
    2102:	48 83 c2 01          	add    rdx,0x1
    2106:	39 da                	cmp    edx,ebx
    2108:	72 de                	jb     20e8 <_Z12calc_avg_stdRSt6vectorIjSaIjEES2_j+0x168>
    210a:	85 c0                	test   eax,eax
    210c:	0f 84 d4 02 00 00    	je     23e6 <_Z12calc_avg_stdRSt6vectorIjSaIjEES2_j+0x466>
    2112:	48 8b 74 24 08       	mov    rsi,QWORD PTR [rsp+0x8]
    2117:	89 c7                	mov    edi,eax
    2119:	48 8b 36             	mov    rsi,QWORD PTR [rsi]
    211c:	45 31 c0             	xor    r8d,r8d
    211f:	66 0f ef c0          	pxor   xmm0,xmm0
    2123:	44 89 f9             	mov    ecx,r15d
    2126:	66 2e 0f 1f 84 00 00 	cs nop WORD PTR [rax+rax*1+0x0]
    212d:	00 00 00 
    2130:	42 8b 04 86          	mov    eax,DWORD PTR [rsi+r8*4]
    2134:	66 0f ef d2          	pxor   xmm2,xmm2
    2138:	f2 48 0f 2a d0       	cvtsi2sd xmm2,rax
    213d:	f2 0f 5c d3          	subsd  xmm2,xmm3
    2141:	f2 0f 59 d2          	mulsd  xmm2,xmm2
    2145:	f2 0f 58 c2          	addsd  xmm0,xmm2
    2149:	85 db                	test   ebx,ebx
    214b:	74 44                	je     2191 <_Z12calc_avg_stdRSt6vectorIjSaIjEES2_j+0x211>
    214d:	45 89 c1             	mov    r9d,r8d
    2150:	49 8b 14 24          	mov    rdx,QWORD PTR [r12]
    2154:	31 c0                	xor    eax,eax
    2156:	41 d3 e1             	shl    r9d,cl
    2159:	0f 1f 80 00 00 00 00 	nop    DWORD PTR [rax+0x0]
    2160:	45 8d 14 01          	lea    r10d,[r9+rax*1]
    2164:	66 0f ef d2          	pxor   xmm2,xmm2
    2168:	46 8b 14 92          	mov    r10d,DWORD PTR [rdx+r10*4]
    216c:	f2 49 0f 2a d2       	cvtsi2sd xmm2,r10
    2171:	f2 41 0f 5c 54 c5 00 	subsd  xmm2,QWORD PTR [r13+rax*8+0x0]
    2178:	f2 0f 59 d2          	mulsd  xmm2,xmm2
    217c:	f2 0f 58 54 c5 00    	addsd  xmm2,QWORD PTR [rbp+rax*8+0x0]
    2182:	f2 0f 11 54 c5 00    	movsd  QWORD PTR [rbp+rax*8+0x0],xmm2
    2188:	48 83 c0 01          	add    rax,0x1
    218c:	49 39 c6             	cmp    r14,rax
    218f:	75 cf                	jne    2160 <_Z12calc_avg_stdRSt6vectorIjSaIjEES2_j+0x1e0>
    2191:	49 83 c0 01          	add    r8,0x1
    2195:	4c 39 c7             	cmp    rdi,r8
    2198:	75 96                	jne    2130 <_Z12calc_avg_stdRSt6vectorIjSaIjEES2_j+0x1b0>
    219a:	f2 0f 5e c4          	divsd  xmm0,xmm4
    219e:	66 0f ef c9          	pxor   xmm1,xmm1
    21a2:	41 89 cf             	mov    r15d,ecx
    21a5:	66 0f 2e c8          	ucomisd xmm1,xmm0
    21a9:	0f 87 56 02 00 00    	ja     2405 <_Z12calc_avg_stdRSt6vectorIjSaIjEES2_j+0x485>
    21af:	f2 0f 51 c0          	sqrtsd xmm0,xmm0
    21b3:	8b 05 a7 3e 00 00    	mov    eax,DWORD PTR [rip+0x3ea7]        # 6060 <single_trial>
    21b9:	66 0f ef c9          	pxor   xmm1,xmm1
    21bd:	48 8d 35 44 1e 00 00 	lea    rsi,[rip+0x1e44]        # 4008 <_IO_stdin_used+0x8>
    21c4:	bf 02 00 00 00       	mov    edi,0x2
    21c9:	f2 0f 59 1d 8f 1f 00 	mulsd  xmm3,QWORD PTR [rip+0x1f8f]        # 4160 <_IO_stdin_used+0x160>
    21d0:	00 
    21d1:	f2 48 0f 2a c8       	cvtsi2sd xmm1,rax
    21d6:	b8 02 00 00 00       	mov    eax,0x2
    21db:	f2 0f 5e d9          	divsd  xmm3,xmm1
    21df:	f2 0f 5e c1          	divsd  xmm0,xmm1
    21e3:	66 0f 28 c8          	movapd xmm1,xmm0
    21e7:	66 0f 28 c3          	movapd xmm0,xmm3
    21eb:	e8 10 ef ff ff       	call   1100 <__printf_chk@plt>
    21f0:	80 3d c9 67 00 00 00 	cmp    BYTE PTR [rip+0x67c9],0x0        # 89c0 <verbose>
    21f7:	0f 84 d5 01 00 00    	je     23d2 <_Z12calc_avg_stdRSt6vectorIjSaIjEES2_j+0x452>
    21fd:	48 c7 44 24 08 00 00 	mov    QWORD PTR [rsp+0x8],0x0
    2204:	00 00 
    2206:	85 db                	test   ebx,ebx
    2208:	0f 84 82 01 00 00    	je     2390 <_Z12calc_avg_stdRSt6vectorIjSaIjEES2_j+0x410>
    220e:	66 90                	xchg   ax,ax
    2210:	48 8b 44 24 08       	mov    rax,QWORD PTR [rsp+0x8]
    2215:	48 8d 35 75 1e 00 00 	lea    rsi,[rip+0x1e75]        # 4091 <_IO_stdin_used+0x91>
    221c:	bf 02 00 00 00       	mov    edi,0x2
    2221:	89 c2                	mov    edx,eax
    2223:	41 89 c4             	mov    r12d,eax
    2226:	31 c0                	xor    eax,eax
    2228:	83 e2 01             	and    edx,0x1
    222b:	e8 d0 ee ff ff       	call   1100 <__printf_chk@plt>
    2230:	bb 01 00 00 00       	mov    ebx,0x1
    2235:	41 83 ff 01          	cmp    r15d,0x1
    2239:	76 2e                	jbe    2269 <_Z12calc_avg_stdRSt6vectorIjSaIjEES2_j+0x2e9>
    223b:	0f 1f 44 00 00       	nop    DWORD PTR [rax+rax*1+0x0]
    2240:	89 d9                	mov    ecx,ebx
    2242:	ba 01 00 00 00       	mov    edx,0x1
    2247:	48 8d 35 69 1e 00 00 	lea    rsi,[rip+0x1e69]        # 40b7 <_IO_stdin_used+0xb7>
    224e:	31 c0                	xor    eax,eax
    2250:	d3 e2                	shl    edx,cl
    2252:	bf 02 00 00 00       	mov    edi,0x2
    2257:	44 21 e2             	and    edx,r12d
    225a:	d3 fa                	sar    edx,cl
    225c:	e8 9f ee ff ff       	call   1100 <__printf_chk@plt>
    2261:	83 c3 01             	add    ebx,0x1
    2264:	44 39 fb             	cmp    ebx,r15d
    2267:	75 d7                	jne    2240 <_Z12calc_avg_stdRSt6vectorIjSaIjEES2_j+0x2c0>
    2269:	48 8d 35 2b 1e 00 00 	lea    rsi,[rip+0x1e2b]        # 409b <_IO_stdin_used+0x9b>
    2270:	bf 02 00 00 00       	mov    edi,0x2
    2275:	31 c0                	xor    eax,eax
    2277:	e8 84 ee ff ff       	call   1100 <__printf_chk@plt>
    227c:	8b 05 e2 3d 00 00    	mov    eax,DWORD PTR [rip+0x3de2]        # 6064 <tot_trials>
    2282:	66 0f ef c0          	pxor   xmm0,xmm0
    2286:	f2 48 0f 2a c0       	cvtsi2sd xmm0,rax
    228b:	48 8b 44 24 08       	mov    rax,QWORD PTR [rsp+0x8]
    2290:	f2 0f 10 4c c5 00    	movsd  xmm1,QWORD PTR [rbp+rax*8+0x0]
    2296:	f2 0f 5e c8          	divsd  xmm1,xmm0
    229a:	66 0f ef c0          	pxor   xmm0,xmm0
    229e:	66 0f 2e c1          	ucomisd xmm0,xmm1
    22a2:	0f 87 4b 01 00 00    	ja     23f3 <_Z12calc_avg_stdRSt6vectorIjSaIjEES2_j+0x473>
    22a8:	f2 0f 51 c9          	sqrtsd xmm1,xmm1
    22ac:	48 8b 5c 24 08       	mov    rbx,QWORD PTR [rsp+0x8]
    22b1:	8b 05 a9 3d 00 00    	mov    eax,DWORD PTR [rip+0x3da9]        # 6060 <single_trial>
    22b7:	66 0f ef d2          	pxor   xmm2,xmm2
    22bb:	48 8d 35 fa 1d 00 00 	lea    rsi,[rip+0x1dfa]        # 40bc <_IO_stdin_used+0xbc>
    22c2:	f2 0f 10 05 96 1e 00 	movsd  xmm0,QWORD PTR [rip+0x1e96]        # 4160 <_IO_stdin_used+0x160>
    22c9:	00 
    22ca:	bf 02 00 00 00       	mov    edi,0x2
    22cf:	f2 41 0f 59 44 dd 00 	mulsd  xmm0,QWORD PTR [r13+rbx*8+0x0]
    22d6:	f2 48 0f 2a d0       	cvtsi2sd xmm2,rax
    22db:	b8 02 00 00 00       	mov    eax,0x2
    22e0:	f2 0f 5e ca          	divsd  xmm1,xmm2
    22e4:	f2 0f 5e c2          	divsd  xmm0,xmm2
    22e8:	e8 13 ee ff ff       	call   1100 <__printf_chk@plt>
    22ed:	48 83 c3 01          	add    rbx,0x1
    22f1:	48 89 5c 24 08       	mov    QWORD PTR [rsp+0x8],rbx
    22f6:	4c 39 f3             	cmp    rbx,r14
    22f9:	0f 85 11 ff ff ff    	jne    2210 <_Z12calc_avg_stdRSt6vectorIjSaIjEES2_j+0x290>
    22ff:	48 8b 74 24 10       	mov    rsi,QWORD PTR [rsp+0x10]
    2304:	4c 89 ef             	mov    rdi,r13
    2307:	e8 54 ee ff ff       	call   1160 <_ZdlPvm@plt>
    230c:	48 8b 44 24 58       	mov    rax,QWORD PTR [rsp+0x58]
    2311:	64 48 2b 04 25 28 00 	sub    rax,QWORD PTR fs:0x28
    2318:	00 00 
    231a:	0f 85 fb 00 00 00    	jne    241b <_Z12calc_avg_stdRSt6vectorIjSaIjEES2_j+0x49b>
    2320:	48 8b 74 24 10       	mov    rsi,QWORD PTR [rsp+0x10]
    2325:	48 83 c4 68          	add    rsp,0x68
    2329:	48 89 ef             	mov    rdi,rbp
    232c:	5b                   	pop    rbx
    232d:	5d                   	pop    rbp
    232e:	41 5c                	pop    r12
    2330:	41 5d                	pop    r13
    2332:	41 5e                	pop    r14
    2334:	41 5f                	pop    r15
    2336:	e9 25 ee ff ff       	jmp    1160 <_ZdlPvm@plt>
    233b:	8b 05 23 3d 00 00    	mov    eax,DWORD PTR [rip+0x3d23]        # 6064 <tot_trials>
    2341:	0f 29 44 24 20       	movaps XMMWORD PTR [rsp+0x20],xmm0
    2346:	31 ed                	xor    ebp,ebp
    2348:	45 31 ed             	xor    r13d,r13d
    234b:	48 c7 44 24 30 00 00 	mov    QWORD PTR [rsp+0x30],0x0
    2352:	00 00 
    2354:	48 c7 44 24 40 00 00 	mov    QWORD PTR [rsp+0x40],0x0
    235b:	00 00 
    235d:	48 c7 44 24 50 00 00 	mov    QWORD PTR [rsp+0x50],0x0
    2364:	00 00 
    2366:	48 c7 44 24 48 00 00 	mov    QWORD PTR [rsp+0x48],0x0
    236d:	00 00 
    236f:	85 c0                	test   eax,eax
    2371:	0f 85 e2 fc ff ff    	jne    2059 <_Z12calc_avg_stdRSt6vectorIjSaIjEES2_j+0xd9>
    2377:	66 0f ef c0          	pxor   xmm0,xmm0
    237b:	f2 0f 5e c0          	divsd  xmm0,xmm0
    237f:	66 0f 28 d8          	movapd xmm3,xmm0
    2383:	e9 27 fe ff ff       	jmp    21af <_Z12calc_avg_stdRSt6vectorIjSaIjEES2_j+0x22f>
    2388:	0f 1f 84 00 00 00 00 	nop    DWORD PTR [rax+rax*1+0x0]
    238f:	00 
    2390:	4d 85 ed             	test   r13,r13
    2393:	75 42                	jne    23d7 <_Z12calc_avg_stdRSt6vectorIjSaIjEES2_j+0x457>
    2395:	48 85 ed             	test   rbp,rbp
    2398:	0f 85 6e ff ff ff    	jne    230c <_Z12calc_avg_stdRSt6vectorIjSaIjEES2_j+0x38c>
    239e:	48 8b 44 24 58       	mov    rax,QWORD PTR [rsp+0x58]
    23a3:	64 48 2b 04 25 28 00 	sub    rax,QWORD PTR fs:0x28
    23aa:	00 00 
    23ac:	75 6d                	jne    241b <_Z12calc_avg_stdRSt6vectorIjSaIjEES2_j+0x49b>
    23ae:	48 83 c4 68          	add    rsp,0x68
    23b2:	5b                   	pop    rbx
    23b3:	5d                   	pop    rbp
    23b4:	41 5c                	pop    r12
    23b6:	41 5d                	pop    r13
    23b8:	41 5e                	pop    r14
    23ba:	41 5f                	pop    r15
    23bc:	c3                   	ret
    23bd:	66 0f ef c0          	pxor   xmm0,xmm0
    23c1:	66 0f 28 d8          	movapd xmm3,xmm0
    23c5:	66 0f 28 e0          	movapd xmm4,xmm0
    23c9:	f2 0f 5e d8          	divsd  xmm3,xmm0
    23cd:	e9 0e fd ff ff       	jmp    20e0 <_Z12calc_avg_stdRSt6vectorIjSaIjEES2_j+0x160>
    23d2:	4d 85 ed             	test   r13,r13
    23d5:	74 be                	je     2395 <_Z12calc_avg_stdRSt6vectorIjSaIjEES2_j+0x415>
    23d7:	48 8b 74 24 10       	mov    rsi,QWORD PTR [rsp+0x10]
    23dc:	4c 89 ef             	mov    rdi,r13
    23df:	e8 7c ed ff ff       	call   1160 <_ZdlPvm@plt>
    23e4:	eb af                	jmp    2395 <_Z12calc_avg_stdRSt6vectorIjSaIjEES2_j+0x415>
    23e6:	66 0f ef c0          	pxor   xmm0,xmm0
    23ea:	f2 0f 5e c4          	divsd  xmm0,xmm4
    23ee:	e9 bc fd ff ff       	jmp    21af <_Z12calc_avg_stdRSt6vectorIjSaIjEES2_j+0x22f>
    23f3:	66 0f 28 c1          	movapd xmm0,xmm1
    23f7:	e8 44 ed ff ff       	call   1140 <sqrt@plt>
    23fc:	66 0f 28 c8          	movapd xmm1,xmm0
    2400:	e9 a7 fe ff ff       	jmp    22ac <_Z12calc_avg_stdRSt6vectorIjSaIjEES2_j+0x32c>
    2405:	f2 0f 11 5c 24 08    	movsd  QWORD PTR [rsp+0x8],xmm3
    240b:	e8 30 ed ff ff       	call   1140 <sqrt@plt>
    2410:	f2 0f 10 5c 24 08    	movsd  xmm3,QWORD PTR [rsp+0x8]
    2416:	e9 98 fd ff ff       	jmp    21b3 <_Z12calc_avg_stdRSt6vectorIjSaIjEES2_j+0x233>
    241b:	e8 50 ed ff ff       	call   1170 <__stack_chk_fail@plt>
    2420:	f3 0f 1e fa          	endbr64
    2424:	48 89 c3             	mov    rbx,rax
    2427:	e9 9e ed ff ff       	jmp    11ca <_Z12calc_avg_stdRSt6vectorIjSaIjEES2_j.cold+0xa>
    242c:	f3 0f 1e fa          	endbr64
    2430:	48 89 c3             	mov    rbx,rax
    2433:	e9 88 ed ff ff       	jmp    11c0 <_Z12calc_avg_stdRSt6vectorIjSaIjEES2_j.cold>
    2438:	0f 1f 84 00 00 00 00 	nop    DWORD PTR [rax+rax*1+0x0]
    243f:	00 

0000000000002440 <_Z9test_gatePKcPFbjEj>:
    2440:	f3 0f 1e fa          	endbr64
    2444:	41 57                	push   r15
    2446:	89 d1                	mov    ecx,edx
    2448:	66 0f ef c0          	pxor   xmm0,xmm0
    244c:	41 56                	push   r14
    244e:	41 55                	push   r13
    2450:	49 89 f5             	mov    r13,rsi
    2453:	41 54                	push   r12
    2455:	55                   	push   rbp
    2456:	53                   	push   rbx
    2457:	48 81 ec 88 00 00 00 	sub    rsp,0x88
    245e:	48 89 7c 24 28       	mov    QWORD PTR [rsp+0x28],rdi
    2463:	89 54 24 14          	mov    DWORD PTR [rsp+0x14],edx
    2467:	64 48 8b 04 25 28 00 	mov    rax,QWORD PTR fs:0x28
    246e:	00 00 
    2470:	48 89 44 24 78       	mov    QWORD PTR [rsp+0x78],rax
    2475:	b8 01 00 00 00       	mov    eax,0x1
    247a:	0f 11 44 24 48       	movups XMMWORD PTR [rsp+0x48],xmm0
    247f:	d3 e0                	shl    eax,cl
    2481:	89 44 24 0c          	mov    DWORD PTR [rsp+0xc],eax
    2485:	8b 05 d9 3b 00 00    	mov    eax,DWORD PTR [rip+0x3bd9]        # 6064 <tot_trials>
    248b:	48 89 44 24 18       	mov    QWORD PTR [rsp+0x18],rax
    2490:	48 85 c0             	test   rax,rax
    2493:	0f 84 36 02 00 00    	je     26cf <_Z9test_gatePKcPFbjEj+0x28f>
    2499:	48 c1 64 24 18 02    	shl    QWORD PTR [rsp+0x18],0x2
    249f:	48 8b 5c 24 18       	mov    rbx,QWORD PTR [rsp+0x18]
    24a4:	48 89 df             	mov    rdi,rbx
    24a7:	e8 a4 ec ff ff       	call   1150 <_Znwm@plt>
    24ac:	48 89 da             	mov    rdx,rbx
    24af:	31 f6                	xor    esi,esi
    24b1:	48 8d 1c 18          	lea    rbx,[rax+rbx*1]
    24b5:	48 89 c7             	mov    rdi,rax
    24b8:	48 89 44 24 20       	mov    QWORD PTR [rsp+0x20],rax
    24bd:	48 89 44 24 40       	mov    QWORD PTR [rsp+0x40],rax
    24c2:	48 89 5c 24 50       	mov    QWORD PTR [rsp+0x50],rbx
    24c7:	e8 54 ec ff ff       	call   1120 <memset@plt>
    24cc:	8b 05 92 3b 00 00    	mov    eax,DWORD PTR [rip+0x3b92]        # 6064 <tot_trials>
    24d2:	0f b6 4c 24 14       	movzx  ecx,BYTE PTR [rsp+0x14]
    24d7:	66 0f ef c0          	pxor   xmm0,xmm0
    24db:	48 89 5c 24 48       	mov    QWORD PTR [rsp+0x48],rbx
    24e0:	d3 e0                	shl    eax,cl
    24e2:	0f 11 44 24 68       	movups XMMWORD PTR [rsp+0x68],xmm0
    24e7:	48 85 c0             	test   rax,rax
    24ea:	0f 84 03 02 00 00    	je     26f3 <_Z9test_gatePKcPFbjEj+0x2b3>
    24f0:	48 8d 1c 85 00 00 00 	lea    rbx,[rax*4+0x0]
    24f7:	00 
    24f8:	48 89 df             	mov    rdi,rbx
    24fb:	48 89 5c 24 38       	mov    QWORD PTR [rsp+0x38],rbx
    2500:	e8 4b ec ff ff       	call   1150 <_Znwm@plt>
    2505:	48 89 da             	mov    rdx,rbx
    2508:	31 f6                	xor    esi,esi
    250a:	48 8d 1c 18          	lea    rbx,[rax+rbx*1]
    250e:	48 89 c7             	mov    rdi,rax
    2511:	48 89 44 24 60       	mov    QWORD PTR [rsp+0x60],rax
    2516:	49 89 c4             	mov    r12,rax
    2519:	48 89 5c 24 70       	mov    QWORD PTR [rsp+0x70],rbx
    251e:	e8 fd eb ff ff       	call   1120 <memset@plt>
    2523:	48 89 5c 24 68       	mov    QWORD PTR [rsp+0x68],rbx
    2528:	e8 03 ec ff ff       	call   1130 <clock@plt>
    252d:	8b 15 31 3b 00 00    	mov    edx,DWORD PTR [rip+0x3b31]        # 6064 <tot_trials>
    2533:	48 89 44 24 30       	mov    QWORD PTR [rsp+0x30],rax
    2538:	85 d2                	test   edx,edx
    253a:	0f 84 97 00 00 00    	je     25d7 <_Z9test_gatePKcPFbjEj+0x197>
    2540:	48 8d 44 24 60       	lea    rax,[rsp+0x60]
    2545:	c7 44 24 10 00 00 00 	mov    DWORD PTR [rsp+0x10],0x0
    254c:	00 
    254d:	48 8b 6c 24 20       	mov    rbp,QWORD PTR [rsp+0x20]
    2552:	48 89 04 24          	mov    QWORD PTR [rsp],rax
    2556:	66 2e 0f 1f 84 00 00 	cs nop WORD PTR [rax+rax*1+0x0]
    255d:	00 00 00 
    2560:	8b 44 24 10          	mov    eax,DWORD PTR [rsp+0x10]
    2564:	0f b6 4c 24 14       	movzx  ecx,BYTE PTR [rsp+0x14]
    2569:	31 db                	xor    ebx,ebx
    256b:	d3 e0                	shl    eax,cl
    256d:	89 44 24 08          	mov    DWORD PTR [rsp+0x8],eax
    2571:	8b 05 e9 3a 00 00    	mov    eax,DWORD PTR [rip+0x3ae9]        # 6060 <single_trial>
    2577:	85 c0                	test   eax,eax
    2579:	75 14                	jne    258f <_Z9test_gatePKcPFbjEj+0x14f>
    257b:	eb 45                	jmp    25c2 <_Z9test_gatePKcPFbjEj+0x182>
    257d:	0f 1f 00             	nop    DWORD PTR [rax]
    2580:	83 45 00 01          	add    DWORD PTR [rbp+0x0],0x1
    2584:	83 c3 01             	add    ebx,0x1
    2587:	3b 1d d3 3a 00 00    	cmp    ebx,DWORD PTR [rip+0x3ad3]        # 6060 <single_trial>
    258d:	73 33                	jae    25c2 <_Z9test_gatePKcPFbjEj+0x182>
    258f:	4c 8b 3c 24          	mov    r15,QWORD PTR [rsp]
    2593:	4c 8d 74 24 40       	lea    r14,[rsp+0x40]
    2598:	89 df                	mov    edi,ebx
    259a:	41 ff d5             	call   r13
    259d:	84 c0                	test   al,al
    259f:	75 df                	jne    2580 <_Z9test_gatePKcPFbjEj+0x140>
    25a1:	8b 44 24 0c          	mov    eax,DWORD PTR [rsp+0xc]
    25a5:	8b 54 24 08          	mov    edx,DWORD PTR [rsp+0x8]
    25a9:	83 e8 01             	sub    eax,0x1
    25ac:	21 d8                	and    eax,ebx
    25ae:	83 c3 01             	add    ebx,0x1
    25b1:	01 d0                	add    eax,edx
    25b3:	89 c0                	mov    eax,eax
    25b5:	41 83 04 84 01       	add    DWORD PTR [r12+rax*4],0x1
    25ba:	3b 1d a0 3a 00 00    	cmp    ebx,DWORD PTR [rip+0x3aa0]        # 6060 <single_trial>
    25c0:	72 cd                	jb     258f <_Z9test_gatePKcPFbjEj+0x14f>
    25c2:	83 44 24 10 01       	add    DWORD PTR [rsp+0x10],0x1
    25c7:	48 83 c5 04          	add    rbp,0x4
    25cb:	8b 44 24 10          	mov    eax,DWORD PTR [rsp+0x10]
    25cf:	3b 05 8f 3a 00 00    	cmp    eax,DWORD PTR [rip+0x3a8f]        # 6064 <tot_trials>
    25d5:	72 89                	jb     2560 <_Z9test_gatePKcPFbjEj+0x120>
    25d7:	e8 54 eb ff ff       	call   1130 <clock@plt>
    25dc:	48 8b 54 24 28       	mov    rdx,QWORD PTR [rsp+0x28]
    25e1:	bf 02 00 00 00       	mov    edi,0x2
    25e6:	48 8d 35 e1 1a 00 00 	lea    rsi,[rip+0x1ae1]        # 40ce <_IO_stdin_used+0xce>
    25ed:	48 89 c3             	mov    rbx,rax
    25f0:	4c 8d 7c 24 60       	lea    r15,[rsp+0x60]
    25f5:	4c 8d 74 24 40       	lea    r14,[rsp+0x40]
    25fa:	31 c0                	xor    eax,eax
    25fc:	e8 ff ea ff ff       	call   1100 <__printf_chk@plt>
    2601:	8b 54 24 14          	mov    edx,DWORD PTR [rsp+0x14]
    2605:	4c 89 fe             	mov    rsi,r15
    2608:	4c 89 f7             	mov    rdi,r14
    260b:	e8 70 f9 ff ff       	call   1f80 <_Z12calc_avg_stdRSt6vectorIjSaIjEES2_j>
    2610:	48 8b 44 24 30       	mov    rax,QWORD PTR [rsp+0x30]
    2615:	66 0f ef c0          	pxor   xmm0,xmm0
    2619:	bf 02 00 00 00       	mov    edi,0x2
    261e:	48 8d 35 c6 1a 00 00 	lea    rsi,[rip+0x1ac6]        # 40eb <_IO_stdin_used+0xeb>
    2625:	48 29 c3             	sub    rbx,rax
    2628:	b8 01 00 00 00       	mov    eax,0x1
    262d:	f2 48 0f 2a c3       	cvtsi2sd xmm0,rbx
    2632:	f2 0f 5e 05 2e 1b 00 	divsd  xmm0,QWORD PTR [rip+0x1b2e]        # 4168 <_IO_stdin_used+0x168>
    2639:	00 
    263a:	e8 c1 ea ff ff       	call   1100 <__printf_chk@plt>
    263f:	8b 15 1f 3a 00 00    	mov    edx,DWORD PTR [rip+0x3a1f]        # 6064 <tot_trials>
    2645:	0f af 15 14 3a 00 00 	imul   edx,DWORD PTR [rip+0x3a14]        # 6060 <single_trial>
    264c:	bf 02 00 00 00       	mov    edi,0x2
    2651:	31 c0                	xor    eax,eax
    2653:	48 8d 35 a4 1a 00 00 	lea    rsi,[rip+0x1aa4]        # 40fe <_IO_stdin_used+0xfe>
    265a:	e8 a1 ea ff ff       	call   1100 <__printf_chk@plt>
    265f:	4d 85 e4             	test   r12,r12
    2662:	74 0d                	je     2671 <_Z9test_gatePKcPFbjEj+0x231>
    2664:	48 8b 74 24 38       	mov    rsi,QWORD PTR [rsp+0x38]
    2669:	4c 89 e7             	mov    rdi,r12
    266c:	e8 ef ea ff ff       	call   1160 <_ZdlPvm@plt>
    2671:	48 83 7c 24 20 00    	cmp    QWORD PTR [rsp+0x20],0x0
    2677:	74 34                	je     26ad <_Z9test_gatePKcPFbjEj+0x26d>
    2679:	48 8b 44 24 78       	mov    rax,QWORD PTR [rsp+0x78]
    267e:	64 48 2b 04 25 28 00 	sub    rax,QWORD PTR fs:0x28
    2685:	00 00 
    2687:	0f 85 8b 00 00 00    	jne    2718 <_Z9test_gatePKcPFbjEj+0x2d8>
    268d:	48 8b 74 24 18       	mov    rsi,QWORD PTR [rsp+0x18]
    2692:	48 8b 7c 24 20       	mov    rdi,QWORD PTR [rsp+0x20]
    2697:	48 81 c4 88 00 00 00 	add    rsp,0x88
    269e:	5b                   	pop    rbx
    269f:	5d                   	pop    rbp
    26a0:	41 5c                	pop    r12
    26a2:	41 5d                	pop    r13
    26a4:	41 5e                	pop    r14
    26a6:	41 5f                	pop    r15
    26a8:	e9 b3 ea ff ff       	jmp    1160 <_ZdlPvm@plt>
    26ad:	48 8b 44 24 78       	mov    rax,QWORD PTR [rsp+0x78]
    26b2:	64 48 2b 04 25 28 00 	sub    rax,QWORD PTR fs:0x28
    26b9:	00 00 
    26bb:	75 5b                	jne    2718 <_Z9test_gatePKcPFbjEj+0x2d8>
    26bd:	48 81 c4 88 00 00 00 	add    rsp,0x88
    26c4:	5b                   	pop    rbx
    26c5:	5d                   	pop    rbp
    26c6:	41 5c                	pop    r12
    26c8:	41 5d                	pop    r13
    26ca:	41 5e                	pop    r14
    26cc:	41 5f                	pop    r15
    26ce:	c3                   	ret
    26cf:	48 c7 44 24 40 00 00 	mov    QWORD PTR [rsp+0x40],0x0
    26d6:	00 00 
    26d8:	48 c7 44 24 50 00 00 	mov    QWORD PTR [rsp+0x50],0x0
    26df:	00 00 
    26e1:	48 c7 44 24 48 00 00 	mov    QWORD PTR [rsp+0x48],0x0
    26e8:	00 00 
    26ea:	48 c7 44 24 20 00 00 	mov    QWORD PTR [rsp+0x20],0x0
    26f1:	00 00 
    26f3:	48 c7 44 24 60 00 00 	mov    QWORD PTR [rsp+0x60],0x0
    26fa:	00 00 
    26fc:	45 31 e4             	xor    r12d,r12d
    26ff:	31 db                	xor    ebx,ebx
    2701:	48 c7 44 24 70 00 00 	mov    QWORD PTR [rsp+0x70],0x0
    2708:	00 00 
    270a:	48 c7 44 24 38 00 00 	mov    QWORD PTR [rsp+0x38],0x0
    2711:	00 00 
    2713:	e9 0b fe ff ff       	jmp    2523 <_Z9test_gatePKcPFbjEj+0xe3>
    2718:	e8 53 ea ff ff       	call   1170 <__stack_chk_fail@plt>
    271d:	f3 0f 1e fa          	endbr64
    2721:	48 89 c3             	mov    rbx,rax
    2724:	e9 c8 ea ff ff       	jmp    11f1 <_Z9test_gatePKcPFbjEj.cold>
    2729:	f3 0f 1e fa          	endbr64
    272d:	48 89 c3             	mov    rbx,rax
    2730:	4c 8d 74 24 40       	lea    r14,[rsp+0x40]
    2735:	e9 bf ea ff ff       	jmp    11f9 <_Z9test_gatePKcPFbjEj.cold+0x8>
    273a:	66 0f 1f 44 00 00    	nop    WORD PTR [rax+rax*1+0x0]

0000000000002740 <_ZNSt6vectorIdSaIdEED1Ev>:
    2740:	f3 0f 1e fa          	endbr64
    2744:	48 8b 07             	mov    rax,QWORD PTR [rdi]
    2747:	48 85 c0             	test   rax,rax
    274a:	74 14                	je     2760 <_ZNSt6vectorIdSaIdEED1Ev+0x20>
    274c:	48 8b 77 10          	mov    rsi,QWORD PTR [rdi+0x10]
    2750:	48 89 c7             	mov    rdi,rax
    2753:	48 29 c6             	sub    rsi,rax
    2756:	e9 05 ea ff ff       	jmp    1160 <_ZdlPvm@plt>
    275b:	0f 1f 44 00 00       	nop    DWORD PTR [rax+rax*1+0x0]
    2760:	c3                   	ret
    2761:	66 2e 0f 1f 84 00 00 	cs nop WORD PTR [rax+rax*1+0x0]
    2768:	00 00 00 
    276b:	0f 1f 44 00 00       	nop    DWORD PTR [rax+rax*1+0x0]

0000000000002770 <_ZNSt6vectorIjSaIjEED1Ev>:
    2770:	f3 0f 1e fa          	endbr64
    2774:	48 8b 07             	mov    rax,QWORD PTR [rdi]
    2777:	48 85 c0             	test   rax,rax
    277a:	74 14                	je     2790 <_ZNSt6vectorIjSaIjEED1Ev+0x20>
    277c:	48 8b 77 10          	mov    rsi,QWORD PTR [rdi+0x10]
    2780:	48 89 c7             	mov    rdi,rax
    2783:	48 29 c6             	sub    rsi,rax
    2786:	e9 d5 e9 ff ff       	jmp    1160 <_ZdlPvm@plt>
    278b:	0f 1f 44 00 00       	nop    DWORD PTR [rax+rax*1+0x0]
    2790:	c3                   	ret
    2791:	66 2e 0f 1f 84 00 00 	cs nop WORD PTR [rax+rax*1+0x0]
    2798:	00 00 00 
    279b:	0f 1f 44 00 00       	nop    DWORD PTR [rax+rax*1+0x0]

00000000000027a0 <_Z9nand_gatePhS_S_>:
    27a0:	f3 0f 1e fa          	endbr64
    27a4:	49 89 d0             	mov    r8,rdx
    27a7:	c6 05 32 aa 00 00 00 	mov    BYTE PTR [rip+0xaa32],0x0        # d1e0 <tmp_reg1>
    27ae:	c6 05 2b a2 00 00 00 	mov    BYTE PTR [rip+0xa22b],0x0        # c9e0 <tmp_reg2>
    27b5:	c6 05 24 9a 00 00 00 	mov    BYTE PTR [rip+0x9a24],0x0        # c1e0 <tmp_reg3>
    27bc:	c6 05 1d 92 00 00 00 	mov    BYTE PTR [rip+0x921d],0x0        # b9e0 <tmp_reg4>
    27c3:	0f ae 3d 16 aa 00 00 	clflush BYTE PTR [rip+0xaa16]        # d1e0 <tmp_reg1>
    27ca:	0f ae 3d 0f a2 00 00 	clflush BYTE PTR [rip+0xa20f]        # c9e0 <tmp_reg2>
    27d1:	0f ae 3d 08 9a 00 00 	clflush BYTE PTR [rip+0x9a08]        # c1e0 <tmp_reg3>
    27d8:	0f ae 3d 01 92 00 00 	clflush BYTE PTR [rip+0x9201]        # b9e0 <tmp_reg4>
    27df:	c7 44 24 f4 00 00 00 	mov    DWORD PTR [rsp-0xc],0x0
    27e6:	00 
    27e7:	8b 44 24 f4          	mov    eax,DWORD PTR [rsp-0xc]
    27eb:	3d ff 03 00 00       	cmp    eax,0x3ff
    27f0:	7f 1c                	jg     280e <_Z9nand_gatePhS_S_+0x6e>
    27f2:	66 0f 1f 44 00 00    	nop    WORD PTR [rax+rax*1+0x0]
    27f8:	8b 44 24 f4          	mov    eax,DWORD PTR [rsp-0xc]
    27fc:	83 c0 01             	add    eax,0x1
    27ff:	89 44 24 f4          	mov    DWORD PTR [rsp-0xc],eax
    2803:	8b 44 24 f4          	mov    eax,DWORD PTR [rsp-0xc]
    2807:	3d ff 03 00 00       	cmp    eax,0x3ff
    280c:	7e ea                	jle    27f8 <_Z9nand_gatePhS_S_+0x58>
    280e:	4c 8d 0d cb a9 00 00 	lea    r9,[rip+0xa9cb]        # d1e0 <tmp_reg1>
    2815:	48 31 d2             	xor    rdx,rdx
    2818:	f6 f2                	div    dl
    281a:	48 0f b6 0f          	movzx  rcx,BYTE PTR [rdi]
    281e:	48 01 f1             	add    rcx,rsi
    2821:	48 0f b6 11          	movzx  rdx,BYTE PTR [rcx]
    2825:	4c 01 ca             	add    rdx,r9
    2828:	8a 12                	mov    dl,BYTE PTR [rdx]
    282a:	90                   	nop
    282b:	90                   	nop
    282c:	90                   	nop
    282d:	90                   	nop
    282e:	90                   	nop
    282f:	90                   	nop
    2830:	90                   	nop
    2831:	90                   	nop
    2832:	90                   	nop
    2833:	90                   	nop
    2834:	90                   	nop
    2835:	90                   	nop
    2836:	90                   	nop
    2837:	90                   	nop
    2838:	90                   	nop
    2839:	90                   	nop
    283a:	90                   	nop
    283b:	90                   	nop
    283c:	90                   	nop
    283d:	90                   	nop
    283e:	90                   	nop
    283f:	90                   	nop
    2840:	90                   	nop
    2841:	90                   	nop
    2842:	90                   	nop
    2843:	90                   	nop
    2844:	90                   	nop
    2845:	90                   	nop
    2846:	90                   	nop
    2847:	90                   	nop
    2848:	90                   	nop
    2849:	90                   	nop
    284a:	90                   	nop
    284b:	90                   	nop
    284c:	90                   	nop
    284d:	90                   	nop
    284e:	90                   	nop
    284f:	90                   	nop
    2850:	90                   	nop
    2851:	90                   	nop
    2852:	90                   	nop
    2853:	90                   	nop
    2854:	90                   	nop
    2855:	90                   	nop
    2856:	90                   	nop
    2857:	90                   	nop
    2858:	90                   	nop
    2859:	90                   	nop
    285a:	90                   	nop
    285b:	90                   	nop
    285c:	90                   	nop
    285d:	90                   	nop
    285e:	90                   	nop
    285f:	90                   	nop
    2860:	90                   	nop
    2861:	90                   	nop
    2862:	90                   	nop
    2863:	90                   	nop
    2864:	90                   	nop
    2865:	90                   	nop
    2866:	90                   	nop
    2867:	90                   	nop
    2868:	90                   	nop
    2869:	90                   	nop
    286a:	90                   	nop
    286b:	90                   	nop
    286c:	90                   	nop
    286d:	90                   	nop
    286e:	90                   	nop
    286f:	90                   	nop
    2870:	90                   	nop
    2871:	90                   	nop
    2872:	90                   	nop
    2873:	90                   	nop
    2874:	90                   	nop
    2875:	90                   	nop
    2876:	90                   	nop
    2877:	90                   	nop
    2878:	90                   	nop
    2879:	90                   	nop
    287a:	90                   	nop
    287b:	90                   	nop
    287c:	90                   	nop
    287d:	90                   	nop
    287e:	90                   	nop
    287f:	90                   	nop
    2880:	90                   	nop
    2881:	90                   	nop
    2882:	90                   	nop
    2883:	90                   	nop
    2884:	90                   	nop
    2885:	90                   	nop
    2886:	90                   	nop
    2887:	90                   	nop
    2888:	90                   	nop
    2889:	90                   	nop
    288a:	90                   	nop
    288b:	90                   	nop
    288c:	90                   	nop
    288d:	90                   	nop
    288e:	90                   	nop
    288f:	90                   	nop
    2890:	90                   	nop
    2891:	90                   	nop
    2892:	90                   	nop
    2893:	90                   	nop
    2894:	90                   	nop
    2895:	90                   	nop
    2896:	90                   	nop
    2897:	90                   	nop
    2898:	90                   	nop
    2899:	90                   	nop
    289a:	90                   	nop
    289b:	90                   	nop
    289c:	90                   	nop
    289d:	90                   	nop
    289e:	90                   	nop
    289f:	90                   	nop
    28a0:	90                   	nop
    28a1:	90                   	nop
    28a2:	90                   	nop
    28a3:	90                   	nop
    28a4:	90                   	nop
    28a5:	90                   	nop
    28a6:	90                   	nop
    28a7:	90                   	nop
    28a8:	90                   	nop
    28a9:	90                   	nop
    28aa:	90                   	nop
    28ab:	90                   	nop
    28ac:	90                   	nop
    28ad:	90                   	nop
    28ae:	90                   	nop
    28af:	90                   	nop
    28b0:	90                   	nop
    28b1:	90                   	nop
    28b2:	90                   	nop
    28b3:	90                   	nop
    28b4:	90                   	nop
    28b5:	90                   	nop
    28b6:	90                   	nop
    28b7:	90                   	nop
    28b8:	90                   	nop
    28b9:	90                   	nop
    28ba:	90                   	nop
    28bb:	90                   	nop
    28bc:	90                   	nop
    28bd:	90                   	nop
    28be:	90                   	nop
    28bf:	90                   	nop
    28c0:	90                   	nop
    28c1:	90                   	nop
    28c2:	90                   	nop
    28c3:	90                   	nop
    28c4:	90                   	nop
    28c5:	90                   	nop
    28c6:	90                   	nop
    28c7:	90                   	nop
    28c8:	90                   	nop
    28c9:	90                   	nop
    28ca:	90                   	nop
    28cb:	90                   	nop
    28cc:	90                   	nop
    28cd:	90                   	nop
    28ce:	90                   	nop
    28cf:	90                   	nop
    28d0:	90                   	nop
    28d1:	90                   	nop
    28d2:	90                   	nop
    28d3:	90                   	nop
    28d4:	90                   	nop
    28d5:	90                   	nop
    28d6:	90                   	nop
    28d7:	90                   	nop
    28d8:	90                   	nop
    28d9:	90                   	nop
    28da:	90                   	nop
    28db:	90                   	nop
    28dc:	90                   	nop
    28dd:	90                   	nop
    28de:	90                   	nop
    28df:	90                   	nop
    28e0:	90                   	nop
    28e1:	90                   	nop
    28e2:	90                   	nop
    28e3:	90                   	nop
    28e4:	90                   	nop
    28e5:	90                   	nop
    28e6:	90                   	nop
    28e7:	90                   	nop
    28e8:	90                   	nop
    28e9:	90                   	nop
    28ea:	90                   	nop
    28eb:	90                   	nop
    28ec:	90                   	nop
    28ed:	90                   	nop
    28ee:	90                   	nop
    28ef:	90                   	nop
    28f0:	90                   	nop
    28f1:	90                   	nop
    28f2:	90                   	nop
    28f3:	90                   	nop
    28f4:	90                   	nop
    28f5:	90                   	nop
    28f6:	90                   	nop
    28f7:	90                   	nop
    28f8:	90                   	nop
    28f9:	90                   	nop
    28fa:	90                   	nop
    28fb:	90                   	nop
    28fc:	90                   	nop
    28fd:	90                   	nop
    28fe:	90                   	nop
    28ff:	90                   	nop
    2900:	90                   	nop
    2901:	90                   	nop
    2902:	90                   	nop
    2903:	90                   	nop
    2904:	90                   	nop
    2905:	90                   	nop
    2906:	90                   	nop
    2907:	90                   	nop
    2908:	90                   	nop
    2909:	90                   	nop
    290a:	90                   	nop
    290b:	90                   	nop
    290c:	90                   	nop
    290d:	90                   	nop
    290e:	90                   	nop
    290f:	90                   	nop
    2910:	90                   	nop
    2911:	90                   	nop
    2912:	90                   	nop
    2913:	90                   	nop
    2914:	90                   	nop
    2915:	90                   	nop
    2916:	90                   	nop
    2917:	90                   	nop
    2918:	90                   	nop
    2919:	90                   	nop
    291a:	90                   	nop
    291b:	90                   	nop
    291c:	90                   	nop
    291d:	90                   	nop
    291e:	90                   	nop
    291f:	90                   	nop
    2920:	90                   	nop
    2921:	90                   	nop
    2922:	90                   	nop
    2923:	90                   	nop
    2924:	90                   	nop
    2925:	90                   	nop
    2926:	90                   	nop
    2927:	90                   	nop
    2928:	90                   	nop
    2929:	90                   	nop
    292a:	c7 44 24 f8 00 00 00 	mov    DWORD PTR [rsp-0x8],0x0
    2931:	00 
    2932:	8b 44 24 f8          	mov    eax,DWORD PTR [rsp-0x8]
    2936:	3d ff 03 00 00       	cmp    eax,0x3ff
    293b:	7f 19                	jg     2956 <_Z9nand_gatePhS_S_+0x1b6>
    293d:	0f 1f 00             	nop    DWORD PTR [rax]
    2940:	8b 44 24 f8          	mov    eax,DWORD PTR [rsp-0x8]
    2944:	83 c0 01             	add    eax,0x1
    2947:	89 44 24 f8          	mov    DWORD PTR [rsp-0x8],eax
    294b:	8b 44 24 f8          	mov    eax,DWORD PTR [rsp-0x8]
    294f:	3d ff 03 00 00       	cmp    eax,0x3ff
    2954:	7e ea                	jle    2940 <_Z9nand_gatePhS_S_+0x1a0>
    2956:	0f 01 f9             	rdtscp
    2959:	48 c1 e2 20          	shl    rdx,0x20
    295d:	48 89 d6             	mov    rsi,rdx
    2960:	09 c6                	or     esi,eax
    2962:	8a 05 78 a8 00 00    	mov    al,BYTE PTR [rip+0xa878]        # d1e0 <tmp_reg1>
    2968:	0f 01 f9             	rdtscp
    296b:	48 c1 e2 20          	shl    rdx,0x20
    296f:	09 c2                	or     edx,eax
    2971:	48 29 f2             	sub    rdx,rsi
    2974:	48 89 d7             	mov    rdi,rdx
    2977:	48 81 ff 96 00 00 00 	cmp    rdi,0x96
    297e:	0f 87 6c 01 00 00    	ja     2af0 <_Z9nand_gatePhS_S_+0x350>
    2984:	c6 05 55 a0 00 00 00 	mov    BYTE PTR [rip+0xa055],0x0        # c9e0 <tmp_reg2>
    298b:	c6 05 4e 98 00 00 00 	mov    BYTE PTR [rip+0x984e],0x0        # c1e0 <tmp_reg3>
    2992:	c7 44 24 fc 00 00 00 	mov    DWORD PTR [rsp-0x4],0x0
    2999:	00 
    299a:	8b 44 24 fc          	mov    eax,DWORD PTR [rsp-0x4]
    299e:	83 f8 3f             	cmp    eax,0x3f
    29a1:	7f 19                	jg     29bc <_Z9nand_gatePhS_S_+0x21c>
    29a3:	0f 1f 44 00 00       	nop    DWORD PTR [rax+rax*1+0x0]
    29a8:	8b 44 24 fc          	mov    eax,DWORD PTR [rsp-0x4]
    29ac:	83 c0 01             	add    eax,0x1
    29af:	89 44 24 fc          	mov    DWORD PTR [rsp-0x4],eax
    29b3:	8b 44 24 fc          	mov    eax,DWORD PTR [rsp-0x4]
    29b7:	83 f8 3f             	cmp    eax,0x3f
    29ba:	7e ec                	jle    29a8 <_Z9nand_gatePhS_S_+0x208>
    29bc:	48 8d 35 1d a0 00 00 	lea    rsi,[rip+0xa01d]        # c9e0 <tmp_reg2>
    29c3:	48 8d 3d 16 90 00 00 	lea    rdi,[rip+0x9016]        # b9e0 <tmp_reg4>
    29ca:	4c 8d 0d 0f 98 00 00 	lea    r9,[rip+0x980f]        # c1e0 <tmp_reg3>
    29d1:	48 0f b6 16          	movzx  rdx,BYTE PTR [rsi]
    29d5:	4c 01 ca             	add    rdx,r9
    29d8:	48 0f b6 12          	movzx  rdx,BYTE PTR [rdx]
    29dc:	f6 f2                	div    dl
    29de:	48 0f b6 0f          	movzx  rcx,BYTE PTR [rdi]
    29e2:	4c 01 c1             	add    rcx,r8
    29e5:	8a 11                	mov    dl,BYTE PTR [rcx]
    29e7:	90                   	nop
    29e8:	90                   	nop
    29e9:	90                   	nop
    29ea:	90                   	nop
    29eb:	90                   	nop
    29ec:	90                   	nop
    29ed:	90                   	nop
    29ee:	90                   	nop
    29ef:	90                   	nop
    29f0:	90                   	nop
    29f1:	90                   	nop
    29f2:	90                   	nop
    29f3:	90                   	nop
    29f4:	90                   	nop
    29f5:	90                   	nop
    29f6:	90                   	nop
    29f7:	90                   	nop
    29f8:	90                   	nop
    29f9:	90                   	nop
    29fa:	90                   	nop
    29fb:	90                   	nop
    29fc:	90                   	nop
    29fd:	90                   	nop
    29fe:	90                   	nop
    29ff:	90                   	nop
    2a00:	90                   	nop
    2a01:	90                   	nop
    2a02:	90                   	nop
    2a03:	90                   	nop
    2a04:	90                   	nop
    2a05:	90                   	nop
    2a06:	90                   	nop
    2a07:	90                   	nop
    2a08:	90                   	nop
    2a09:	90                   	nop
    2a0a:	90                   	nop
    2a0b:	90                   	nop
    2a0c:	90                   	nop
    2a0d:	90                   	nop
    2a0e:	90                   	nop
    2a0f:	90                   	nop
    2a10:	90                   	nop
    2a11:	90                   	nop
    2a12:	90                   	nop
    2a13:	90                   	nop
    2a14:	90                   	nop
    2a15:	90                   	nop
    2a16:	90                   	nop
    2a17:	90                   	nop
    2a18:	90                   	nop
    2a19:	90                   	nop
    2a1a:	90                   	nop
    2a1b:	90                   	nop
    2a1c:	90                   	nop
    2a1d:	90                   	nop
    2a1e:	90                   	nop
    2a1f:	90                   	nop
    2a20:	90                   	nop
    2a21:	90                   	nop
    2a22:	90                   	nop
    2a23:	90                   	nop
    2a24:	90                   	nop
    2a25:	90                   	nop
    2a26:	90                   	nop
    2a27:	90                   	nop
    2a28:	90                   	nop
    2a29:	90                   	nop
    2a2a:	90                   	nop
    2a2b:	90                   	nop
    2a2c:	90                   	nop
    2a2d:	90                   	nop
    2a2e:	90                   	nop
    2a2f:	90                   	nop
    2a30:	90                   	nop
    2a31:	90                   	nop
    2a32:	90                   	nop
    2a33:	90                   	nop
    2a34:	90                   	nop
    2a35:	90                   	nop
    2a36:	90                   	nop
    2a37:	90                   	nop
    2a38:	90                   	nop
    2a39:	90                   	nop
    2a3a:	90                   	nop
    2a3b:	90                   	nop
    2a3c:	90                   	nop
    2a3d:	90                   	nop
    2a3e:	90                   	nop
    2a3f:	90                   	nop
    2a40:	90                   	nop
    2a41:	90                   	nop
    2a42:	90                   	nop
    2a43:	90                   	nop
    2a44:	90                   	nop
    2a45:	90                   	nop
    2a46:	90                   	nop
    2a47:	90                   	nop
    2a48:	90                   	nop
    2a49:	90                   	nop
    2a4a:	90                   	nop
    2a4b:	90                   	nop
    2a4c:	90                   	nop
    2a4d:	90                   	nop
    2a4e:	90                   	nop
    2a4f:	90                   	nop
    2a50:	90                   	nop
    2a51:	90                   	nop
    2a52:	90                   	nop
    2a53:	90                   	nop
    2a54:	90                   	nop
    2a55:	90                   	nop
    2a56:	90                   	nop
    2a57:	90                   	nop
    2a58:	90                   	nop
    2a59:	90                   	nop
    2a5a:	90                   	nop
    2a5b:	90                   	nop
    2a5c:	90                   	nop
    2a5d:	90                   	nop
    2a5e:	90                   	nop
    2a5f:	90                   	nop
    2a60:	90                   	nop
    2a61:	90                   	nop
    2a62:	90                   	nop
    2a63:	90                   	nop
    2a64:	90                   	nop
    2a65:	90                   	nop
    2a66:	90                   	nop
    2a67:	90                   	nop
    2a68:	90                   	nop
    2a69:	90                   	nop
    2a6a:	90                   	nop
    2a6b:	90                   	nop
    2a6c:	90                   	nop
    2a6d:	90                   	nop
    2a6e:	90                   	nop
    2a6f:	90                   	nop
    2a70:	90                   	nop
    2a71:	90                   	nop
    2a72:	90                   	nop
    2a73:	90                   	nop
    2a74:	90                   	nop
    2a75:	90                   	nop
    2a76:	90                   	nop
    2a77:	90                   	nop
    2a78:	90                   	nop
    2a79:	90                   	nop
    2a7a:	90                   	nop
    2a7b:	90                   	nop
    2a7c:	90                   	nop
    2a7d:	90                   	nop
    2a7e:	90                   	nop
    2a7f:	90                   	nop
    2a80:	90                   	nop
    2a81:	90                   	nop
    2a82:	90                   	nop
    2a83:	90                   	nop
    2a84:	90                   	nop
    2a85:	90                   	nop
    2a86:	90                   	nop
    2a87:	90                   	nop
    2a88:	90                   	nop
    2a89:	90                   	nop
    2a8a:	90                   	nop
    2a8b:	90                   	nop
    2a8c:	90                   	nop
    2a8d:	90                   	nop
    2a8e:	90                   	nop
    2a8f:	90                   	nop
    2a90:	90                   	nop
    2a91:	90                   	nop
    2a92:	90                   	nop
    2a93:	90                   	nop
    2a94:	90                   	nop
    2a95:	90                   	nop
    2a96:	90                   	nop
    2a97:	90                   	nop
    2a98:	90                   	nop
    2a99:	90                   	nop
    2a9a:	90                   	nop
    2a9b:	90                   	nop
    2a9c:	90                   	nop
    2a9d:	90                   	nop
    2a9e:	90                   	nop
    2a9f:	90                   	nop
    2aa0:	90                   	nop
    2aa1:	90                   	nop
    2aa2:	90                   	nop
    2aa3:	90                   	nop
    2aa4:	90                   	nop
    2aa5:	90                   	nop
    2aa6:	90                   	nop
    2aa7:	90                   	nop
    2aa8:	90                   	nop
    2aa9:	90                   	nop
    2aaa:	90                   	nop
    2aab:	90                   	nop
    2aac:	90                   	nop
    2aad:	90                   	nop
    2aae:	90                   	nop
    2aaf:	90                   	nop
    2ab0:	90                   	nop
    2ab1:	90                   	nop
    2ab2:	90                   	nop
    2ab3:	90                   	nop
    2ab4:	90                   	nop
    2ab5:	90                   	nop
    2ab6:	90                   	nop
    2ab7:	90                   	nop
    2ab8:	90                   	nop
    2ab9:	90                   	nop
    2aba:	90                   	nop
    2abb:	90                   	nop
    2abc:	90                   	nop
    2abd:	90                   	nop
    2abe:	90                   	nop
    2abf:	90                   	nop
    2ac0:	90                   	nop
    2ac1:	90                   	nop
    2ac2:	90                   	nop
    2ac3:	90                   	nop
    2ac4:	90                   	nop
    2ac5:	90                   	nop
    2ac6:	90                   	nop
    2ac7:	90                   	nop
    2ac8:	90                   	nop
    2ac9:	90                   	nop
    2aca:	90                   	nop
    2acb:	90                   	nop
    2acc:	90                   	nop
    2acd:	90                   	nop
    2ace:	90                   	nop
    2acf:	90                   	nop
    2ad0:	90                   	nop
    2ad1:	90                   	nop
    2ad2:	90                   	nop
    2ad3:	90                   	nop
    2ad4:	90                   	nop
    2ad5:	90                   	nop
    2ad6:	90                   	nop
    2ad7:	90                   	nop
    2ad8:	90                   	nop
    2ad9:	90                   	nop
    2ada:	90                   	nop
    2adb:	90                   	nop
    2adc:	90                   	nop
    2add:	90                   	nop
    2ade:	90                   	nop
    2adf:	90                   	nop
    2ae0:	90                   	nop
    2ae1:	90                   	nop
    2ae2:	90                   	nop
    2ae3:	90                   	nop
    2ae4:	90                   	nop
    2ae5:	90                   	nop
    2ae6:	90                   	nop
    2ae7:	c3                   	ret
    2ae8:	0f 1f 84 00 00 00 00 	nop    DWORD PTR [rax+rax*1+0x0]
    2aef:	00 
    2af0:	0f ae 3d e9 9e 00 00 	clflush BYTE PTR [rip+0x9ee9]        # c9e0 <tmp_reg2>
    2af7:	0f ae 3d e2 96 00 00 	clflush BYTE PTR [rip+0x96e2]        # c1e0 <tmp_reg3>
    2afe:	e9 8f fe ff ff       	jmp    2992 <_Z9nand_gatePhS_S_+0x1f2>
    2b03:	66 66 2e 0f 1f 84 00 	data16 cs nop WORD PTR [rax+rax*1+0x0]
    2b0a:	00 00 00 00 
    2b0e:	66 90                	xchg   ax,ax

0000000000002b10 <_Z8xor_gatePhS_S_j>:
    2b10:	f3 0f 1e fa          	endbr64
    2b14:	53                   	push   rbx
    2b15:	49 89 f8             	mov    r8,rdi
    2b18:	49 89 d2             	mov    r10,rdx
    2b1b:	89 cf                	mov    edi,ecx
    2b1d:	48 83 ec 10          	sub    rsp,0x10
    2b21:	c6 05 b8 86 00 00 00 	mov    BYTE PTR [rip+0x86b8],0x0        # b1e0 <tmp_reg5>
    2b28:	c6 05 b1 7e 00 00 00 	mov    BYTE PTR [rip+0x7eb1],0x0        # a9e0 <tmp_reg6>
    2b2f:	c6 05 aa 76 00 00 00 	mov    BYTE PTR [rip+0x76aa],0x0        # a1e0 <tmp_reg7>
    2b36:	c6 05 a3 6e 00 00 00 	mov    BYTE PTR [rip+0x6ea3],0x0        # 99e0 <tmp_reg8>
    2b3d:	c6 05 9c 66 00 00 00 	mov    BYTE PTR [rip+0x669c],0x0        # 91e0 <tmp_reg9>
    2b44:	c6 05 95 5e 00 00 00 	mov    BYTE PTR [rip+0x5e95],0x0        # 89e0 <tmp_reg10>
    2b4b:	0f ae 3d 8e 76 00 00 	clflush BYTE PTR [rip+0x768e]        # a1e0 <tmp_reg7>
    2b52:	0f ae 3d 87 6e 00 00 	clflush BYTE PTR [rip+0x6e87]        # 99e0 <tmp_reg8>
    2b59:	0f ae 3d 80 66 00 00 	clflush BYTE PTR [rip+0x6680]        # 91e0 <tmp_reg9>
    2b60:	0f ae 3d 79 5e 00 00 	clflush BYTE PTR [rip+0x5e79]        # 89e0 <tmp_reg10>
    2b67:	c7 44 24 04 00 00 00 	mov    DWORD PTR [rsp+0x4],0x0
    2b6e:	00 
    2b6f:	8b 44 24 04          	mov    eax,DWORD PTR [rsp+0x4]
    2b73:	3d ff 03 00 00       	cmp    eax,0x3ff
    2b78:	7f 1c                	jg     2b96 <_Z8xor_gatePhS_S_j+0x86>
    2b7a:	66 0f 1f 44 00 00    	nop    WORD PTR [rax+rax*1+0x0]
    2b80:	8b 44 24 04          	mov    eax,DWORD PTR [rsp+0x4]
    2b84:	83 c0 01             	add    eax,0x1
    2b87:	89 44 24 04          	mov    DWORD PTR [rsp+0x4],eax
    2b8b:	8b 44 24 04          	mov    eax,DWORD PTR [rsp+0x4]
    2b8f:	3d ff 03 00 00       	cmp    eax,0x3ff
    2b94:	7e ea                	jle    2b80 <_Z8xor_gatePhS_S_j+0x70>
    2b96:	4c 8d 1d 43 66 00 00 	lea    r11,[rip+0x6643]        # 91e0 <tmp_reg9>
    2b9d:	48 31 d2             	xor    rdx,rdx
    2ba0:	f6 f2                	div    dl
    2ba2:	49 0f b6 08          	movzx  rcx,BYTE PTR [r8]
    2ba6:	4c 01 d9             	add    rcx,r11
    2ba9:	8a 01                	mov    al,BYTE PTR [rcx]
    2bab:	48 0f b6 0e          	movzx  rcx,BYTE PTR [rsi]
    2baf:	4c 01 d9             	add    rcx,r11
    2bb2:	8a 11                	mov    dl,BYTE PTR [rcx]
    2bb4:	90                   	nop
    2bb5:	90                   	nop
    2bb6:	90                   	nop
    2bb7:	90                   	nop
    2bb8:	90                   	nop
    2bb9:	90                   	nop
    2bba:	90                   	nop
    2bbb:	90                   	nop
    2bbc:	90                   	nop
    2bbd:	90                   	nop
    2bbe:	90                   	nop
    2bbf:	90                   	nop
    2bc0:	90                   	nop
    2bc1:	90                   	nop
    2bc2:	90                   	nop
    2bc3:	90                   	nop
    2bc4:	90                   	nop
    2bc5:	90                   	nop
    2bc6:	90                   	nop
    2bc7:	90                   	nop
    2bc8:	90                   	nop
    2bc9:	90                   	nop
    2bca:	90                   	nop
    2bcb:	90                   	nop
    2bcc:	90                   	nop
    2bcd:	90                   	nop
    2bce:	90                   	nop
    2bcf:	90                   	nop
    2bd0:	90                   	nop
    2bd1:	90                   	nop
    2bd2:	90                   	nop
    2bd3:	90                   	nop
    2bd4:	90                   	nop
    2bd5:	90                   	nop
    2bd6:	90                   	nop
    2bd7:	90                   	nop
    2bd8:	90                   	nop
    2bd9:	90                   	nop
    2bda:	90                   	nop
    2bdb:	90                   	nop
    2bdc:	90                   	nop
    2bdd:	90                   	nop
    2bde:	90                   	nop
    2bdf:	90                   	nop
    2be0:	90                   	nop
    2be1:	90                   	nop
    2be2:	90                   	nop
    2be3:	90                   	nop
    2be4:	90                   	nop
    2be5:	90                   	nop
    2be6:	90                   	nop
    2be7:	90                   	nop
    2be8:	90                   	nop
    2be9:	90                   	nop
    2bea:	90                   	nop
    2beb:	90                   	nop
    2bec:	90                   	nop
    2bed:	90                   	nop
    2bee:	90                   	nop
    2bef:	90                   	nop
    2bf0:	90                   	nop
    2bf1:	90                   	nop
    2bf2:	90                   	nop
    2bf3:	90                   	nop
    2bf4:	90                   	nop
    2bf5:	90                   	nop
    2bf6:	90                   	nop
    2bf7:	90                   	nop
    2bf8:	90                   	nop
    2bf9:	90                   	nop
    2bfa:	90                   	nop
    2bfb:	90                   	nop
    2bfc:	90                   	nop
    2bfd:	90                   	nop
    2bfe:	90                   	nop
    2bff:	90                   	nop
    2c00:	90                   	nop
    2c01:	90                   	nop
    2c02:	90                   	nop
    2c03:	90                   	nop
    2c04:	90                   	nop
    2c05:	90                   	nop
    2c06:	90                   	nop
    2c07:	90                   	nop
    2c08:	90                   	nop
    2c09:	90                   	nop
    2c0a:	90                   	nop
    2c0b:	90                   	nop
    2c0c:	90                   	nop
    2c0d:	90                   	nop
    2c0e:	90                   	nop
    2c0f:	90                   	nop
    2c10:	90                   	nop
    2c11:	90                   	nop
    2c12:	90                   	nop
    2c13:	90                   	nop
    2c14:	90                   	nop
    2c15:	90                   	nop
    2c16:	90                   	nop
    2c17:	90                   	nop
    2c18:	90                   	nop
    2c19:	90                   	nop
    2c1a:	90                   	nop
    2c1b:	90                   	nop
    2c1c:	90                   	nop
    2c1d:	90                   	nop
    2c1e:	90                   	nop
    2c1f:	90                   	nop
    2c20:	90                   	nop
    2c21:	90                   	nop
    2c22:	90                   	nop
    2c23:	90                   	nop
    2c24:	90                   	nop
    2c25:	90                   	nop
    2c26:	90                   	nop
    2c27:	90                   	nop
    2c28:	90                   	nop
    2c29:	90                   	nop
    2c2a:	90                   	nop
    2c2b:	90                   	nop
    2c2c:	90                   	nop
    2c2d:	90                   	nop
    2c2e:	90                   	nop
    2c2f:	90                   	nop
    2c30:	90                   	nop
    2c31:	90                   	nop
    2c32:	90                   	nop
    2c33:	90                   	nop
    2c34:	90                   	nop
    2c35:	90                   	nop
    2c36:	90                   	nop
    2c37:	90                   	nop
    2c38:	90                   	nop
    2c39:	90                   	nop
    2c3a:	90                   	nop
    2c3b:	90                   	nop
    2c3c:	90                   	nop
    2c3d:	90                   	nop
    2c3e:	90                   	nop
    2c3f:	90                   	nop
    2c40:	90                   	nop
    2c41:	90                   	nop
    2c42:	90                   	nop
    2c43:	90                   	nop
    2c44:	90                   	nop
    2c45:	90                   	nop
    2c46:	90                   	nop
    2c47:	90                   	nop
    2c48:	90                   	nop
    2c49:	90                   	nop
    2c4a:	90                   	nop
    2c4b:	90                   	nop
    2c4c:	90                   	nop
    2c4d:	90                   	nop
    2c4e:	90                   	nop
    2c4f:	90                   	nop
    2c50:	90                   	nop
    2c51:	90                   	nop
    2c52:	90                   	nop
    2c53:	90                   	nop
    2c54:	90                   	nop
    2c55:	90                   	nop
    2c56:	90                   	nop
    2c57:	90                   	nop
    2c58:	90                   	nop
    2c59:	90                   	nop
    2c5a:	90                   	nop
    2c5b:	90                   	nop
    2c5c:	90                   	nop
    2c5d:	90                   	nop
    2c5e:	90                   	nop
    2c5f:	90                   	nop
    2c60:	90                   	nop
    2c61:	90                   	nop
    2c62:	90                   	nop
    2c63:	90                   	nop
    2c64:	90                   	nop
    2c65:	90                   	nop
    2c66:	90                   	nop
    2c67:	90                   	nop
    2c68:	90                   	nop
    2c69:	90                   	nop
    2c6a:	90                   	nop
    2c6b:	90                   	nop
    2c6c:	90                   	nop
    2c6d:	90                   	nop
    2c6e:	90                   	nop
    2c6f:	90                   	nop
    2c70:	90                   	nop
    2c71:	90                   	nop
    2c72:	90                   	nop
    2c73:	90                   	nop
    2c74:	90                   	nop
    2c75:	90                   	nop
    2c76:	90                   	nop
    2c77:	90                   	nop
    2c78:	90                   	nop
    2c79:	90                   	nop
    2c7a:	90                   	nop
    2c7b:	90                   	nop
    2c7c:	90                   	nop
    2c7d:	90                   	nop
    2c7e:	90                   	nop
    2c7f:	90                   	nop
    2c80:	90                   	nop
    2c81:	90                   	nop
    2c82:	90                   	nop
    2c83:	90                   	nop
    2c84:	90                   	nop
    2c85:	90                   	nop
    2c86:	90                   	nop
    2c87:	90                   	nop
    2c88:	90                   	nop
    2c89:	90                   	nop
    2c8a:	90                   	nop
    2c8b:	90                   	nop
    2c8c:	90                   	nop
    2c8d:	90                   	nop
    2c8e:	90                   	nop
    2c8f:	90                   	nop
    2c90:	90                   	nop
    2c91:	90                   	nop
    2c92:	90                   	nop
    2c93:	90                   	nop
    2c94:	90                   	nop
    2c95:	90                   	nop
    2c96:	90                   	nop
    2c97:	90                   	nop
    2c98:	90                   	nop
    2c99:	90                   	nop
    2c9a:	90                   	nop
    2c9b:	90                   	nop
    2c9c:	90                   	nop
    2c9d:	90                   	nop
    2c9e:	90                   	nop
    2c9f:	90                   	nop
    2ca0:	90                   	nop
    2ca1:	90                   	nop
    2ca2:	90                   	nop
    2ca3:	90                   	nop
    2ca4:	90                   	nop
    2ca5:	90                   	nop
    2ca6:	90                   	nop
    2ca7:	90                   	nop
    2ca8:	90                   	nop
    2ca9:	90                   	nop
    2caa:	90                   	nop
    2cab:	90                   	nop
    2cac:	90                   	nop
    2cad:	90                   	nop
    2cae:	90                   	nop
    2caf:	90                   	nop
    2cb0:	90                   	nop
    2cb1:	90                   	nop
    2cb2:	90                   	nop
    2cb3:	90                   	nop
    2cb4:	40 f6 c7 01          	test   dil,0x1
    2cb8:	0f 84 02 02 00 00    	je     2ec0 <_Z8xor_gatePhS_S_j+0x3b0>
    2cbe:	c6 05 1b 85 00 00 00 	mov    BYTE PTR [rip+0x851b],0x0        # b1e0 <tmp_reg5>
    2cc5:	83 e7 02             	and    edi,0x2
    2cc8:	0f 84 e2 01 00 00    	je     2eb0 <_Z8xor_gatePhS_S_j+0x3a0>
    2cce:	c6 05 0b 7d 00 00 00 	mov    BYTE PTR [rip+0x7d0b],0x0        # a9e0 <tmp_reg6>
    2cd5:	c7 44 24 08 00 00 00 	mov    DWORD PTR [rsp+0x8],0x0
    2cdc:	00 
    2cdd:	8b 44 24 08          	mov    eax,DWORD PTR [rsp+0x8]
    2ce1:	3d ff 03 00 00       	cmp    eax,0x3ff
    2ce6:	7f 1e                	jg     2d06 <_Z8xor_gatePhS_S_j+0x1f6>
    2ce8:	0f 1f 84 00 00 00 00 	nop    DWORD PTR [rax+rax*1+0x0]
    2cef:	00 
    2cf0:	8b 44 24 08          	mov    eax,DWORD PTR [rsp+0x8]
    2cf4:	83 c0 01             	add    eax,0x1
    2cf7:	89 44 24 08          	mov    DWORD PTR [rsp+0x8],eax
    2cfb:	8b 44 24 08          	mov    eax,DWORD PTR [rsp+0x8]
    2cff:	3d ff 03 00 00       	cmp    eax,0x3ff
    2d04:	7e ea                	jle    2cf0 <_Z8xor_gatePhS_S_j+0x1e0>
    2d06:	48 8d 1d d3 5c 00 00 	lea    rbx,[rip+0x5cd3]        # 89e0 <tmp_reg10>
    2d0d:	48 8d 35 cc 7c 00 00 	lea    rsi,[rip+0x7ccc]        # a9e0 <tmp_reg6>
    2d14:	48 89 da             	mov    rdx,rbx
    2d17:	48 8d 3d c2 84 00 00 	lea    rdi,[rip+0x84c2]        # b1e0 <tmp_reg5>
    2d1e:	e8 7d fa ff ff       	call   27a0 <_Z9nand_gatePhS_S_>
    2d23:	c7 44 24 0c 00 00 00 	mov    DWORD PTR [rsp+0xc],0x0
    2d2a:	00 
    2d2b:	8b 44 24 0c          	mov    eax,DWORD PTR [rsp+0xc]
    2d2f:	3d ff 03 00 00       	cmp    eax,0x3ff
    2d34:	7f 20                	jg     2d56 <_Z8xor_gatePhS_S_j+0x246>
    2d36:	66 2e 0f 1f 84 00 00 	cs nop WORD PTR [rax+rax*1+0x0]
    2d3d:	00 00 00 
    2d40:	8b 44 24 0c          	mov    eax,DWORD PTR [rsp+0xc]
    2d44:	83 c0 01             	add    eax,0x1
    2d47:	89 44 24 0c          	mov    DWORD PTR [rsp+0xc],eax
    2d4b:	8b 44 24 0c          	mov    eax,DWORD PTR [rsp+0xc]
    2d4f:	3d ff 03 00 00       	cmp    eax,0x3ff
    2d54:	7e ea                	jle    2d40 <_Z8xor_gatePhS_S_j+0x230>
    2d56:	0f 01 f9             	rdtscp
    2d59:	48 c1 e2 20          	shl    rdx,0x20
    2d5d:	48 89 d6             	mov    rsi,rdx
    2d60:	09 c6                	or     esi,eax
    2d62:	8a 05 78 5c 00 00    	mov    al,BYTE PTR [rip+0x5c78]        # 89e0 <tmp_reg10>
    2d68:	0f 01 f9             	rdtscp
    2d6b:	48 c1 e2 20          	shl    rdx,0x20
    2d6f:	09 c2                	or     edx,eax
    2d71:	48 29 f2             	sub    rdx,rsi
    2d74:	48 89 d7             	mov    rdi,rdx
    2d77:	48 81 ff 96 00 00 00 	cmp    rdi,0x96
    2d7e:	0f 87 4c 01 00 00    	ja     2ed0 <_Z8xor_gatePhS_S_j+0x3c0>
    2d84:	c6 05 55 5c 00 00 00 	mov    BYTE PTR [rip+0x5c55],0x0        # 89e0 <tmp_reg10>
    2d8b:	48 31 d2             	xor    rdx,rdx
    2d8e:	f6 f2                	div    dl
    2d90:	49 0f b6 0b          	movzx  rcx,BYTE PTR [r11]
    2d94:	48 01 d9             	add    rcx,rbx
    2d97:	48 0f b6 11          	movzx  rdx,BYTE PTR [rcx]
    2d9b:	4c 01 d2             	add    rdx,r10
    2d9e:	8a 12                	mov    dl,BYTE PTR [rdx]
    2da0:	90                   	nop
    2da1:	90                   	nop
    2da2:	90                   	nop
    2da3:	90                   	nop
    2da4:	90                   	nop
    2da5:	90                   	nop
    2da6:	90                   	nop
    2da7:	90                   	nop
    2da8:	90                   	nop
    2da9:	90                   	nop
    2daa:	90                   	nop
    2dab:	90                   	nop
    2dac:	90                   	nop
    2dad:	90                   	nop
    2dae:	90                   	nop
    2daf:	90                   	nop
    2db0:	90                   	nop
    2db1:	90                   	nop
    2db2:	90                   	nop
    2db3:	90                   	nop
    2db4:	90                   	nop
    2db5:	90                   	nop
    2db6:	90                   	nop
    2db7:	90                   	nop
    2db8:	90                   	nop
    2db9:	90                   	nop
    2dba:	90                   	nop
    2dbb:	90                   	nop
    2dbc:	90                   	nop
    2dbd:	90                   	nop
    2dbe:	90                   	nop
    2dbf:	90                   	nop
    2dc0:	90                   	nop
    2dc1:	90                   	nop
    2dc2:	90                   	nop
    2dc3:	90                   	nop
    2dc4:	90                   	nop
    2dc5:	90                   	nop
    2dc6:	90                   	nop
    2dc7:	90                   	nop
    2dc8:	90                   	nop
    2dc9:	90                   	nop
    2dca:	90                   	nop
    2dcb:	90                   	nop
    2dcc:	90                   	nop
    2dcd:	90                   	nop
    2dce:	90                   	nop
    2dcf:	90                   	nop
    2dd0:	90                   	nop
    2dd1:	90                   	nop
    2dd2:	90                   	nop
    2dd3:	90                   	nop
    2dd4:	90                   	nop
    2dd5:	90                   	nop
    2dd6:	90                   	nop
    2dd7:	90                   	nop
    2dd8:	90                   	nop
    2dd9:	90                   	nop
    2dda:	90                   	nop
    2ddb:	90                   	nop
    2ddc:	90                   	nop
    2ddd:	90                   	nop
    2dde:	90                   	nop
    2ddf:	90                   	nop
    2de0:	90                   	nop
    2de1:	90                   	nop
    2de2:	90                   	nop
    2de3:	90                   	nop
    2de4:	90                   	nop
    2de5:	90                   	nop
    2de6:	90                   	nop
    2de7:	90                   	nop
    2de8:	90                   	nop
    2de9:	90                   	nop
    2dea:	90                   	nop
    2deb:	90                   	nop
    2dec:	90                   	nop
    2ded:	90                   	nop
    2dee:	90                   	nop
    2def:	90                   	nop
    2df0:	90                   	nop
    2df1:	90                   	nop
    2df2:	90                   	nop
    2df3:	90                   	nop
    2df4:	90                   	nop
    2df5:	90                   	nop
    2df6:	90                   	nop
    2df7:	90                   	nop
    2df8:	90                   	nop
    2df9:	90                   	nop
    2dfa:	90                   	nop
    2dfb:	90                   	nop
    2dfc:	90                   	nop
    2dfd:	90                   	nop
    2dfe:	90                   	nop
    2dff:	90                   	nop
    2e00:	90                   	nop
    2e01:	90                   	nop
    2e02:	90                   	nop
    2e03:	90                   	nop
    2e04:	90                   	nop
    2e05:	90                   	nop
    2e06:	90                   	nop
    2e07:	90                   	nop
    2e08:	90                   	nop
    2e09:	90                   	nop
    2e0a:	90                   	nop
    2e0b:	90                   	nop
    2e0c:	90                   	nop
    2e0d:	90                   	nop
    2e0e:	90                   	nop
    2e0f:	90                   	nop
    2e10:	90                   	nop
    2e11:	90                   	nop
    2e12:	90                   	nop
    2e13:	90                   	nop
    2e14:	90                   	nop
    2e15:	90                   	nop
    2e16:	90                   	nop
    2e17:	90                   	nop
    2e18:	90                   	nop
    2e19:	90                   	nop
    2e1a:	90                   	nop
    2e1b:	90                   	nop
    2e1c:	90                   	nop
    2e1d:	90                   	nop
    2e1e:	90                   	nop
    2e1f:	90                   	nop
    2e20:	90                   	nop
    2e21:	90                   	nop
    2e22:	90                   	nop
    2e23:	90                   	nop
    2e24:	90                   	nop
    2e25:	90                   	nop
    2e26:	90                   	nop
    2e27:	90                   	nop
    2e28:	90                   	nop
    2e29:	90                   	nop
    2e2a:	90                   	nop
    2e2b:	90                   	nop
    2e2c:	90                   	nop
    2e2d:	90                   	nop
    2e2e:	90                   	nop
    2e2f:	90                   	nop
    2e30:	90                   	nop
    2e31:	90                   	nop
    2e32:	90                   	nop
    2e33:	90                   	nop
    2e34:	90                   	nop
    2e35:	90                   	nop
    2e36:	90                   	nop
    2e37:	90                   	nop
    2e38:	90                   	nop
    2e39:	90                   	nop
    2e3a:	90                   	nop
    2e3b:	90                   	nop
    2e3c:	90                   	nop
    2e3d:	90                   	nop
    2e3e:	90                   	nop
    2e3f:	90                   	nop
    2e40:	90                   	nop
    2e41:	90                   	nop
    2e42:	90                   	nop
    2e43:	90                   	nop
    2e44:	90                   	nop
    2e45:	90                   	nop
    2e46:	90                   	nop
    2e47:	90                   	nop
    2e48:	90                   	nop
    2e49:	90                   	nop
    2e4a:	90                   	nop
    2e4b:	90                   	nop
    2e4c:	90                   	nop
    2e4d:	90                   	nop
    2e4e:	90                   	nop
    2e4f:	90                   	nop
    2e50:	90                   	nop
    2e51:	90                   	nop
    2e52:	90                   	nop
    2e53:	90                   	nop
    2e54:	90                   	nop
    2e55:	90                   	nop
    2e56:	90                   	nop
    2e57:	90                   	nop
    2e58:	90                   	nop
    2e59:	90                   	nop
    2e5a:	90                   	nop
    2e5b:	90                   	nop
    2e5c:	90                   	nop
    2e5d:	90                   	nop
    2e5e:	90                   	nop
    2e5f:	90                   	nop
    2e60:	90                   	nop
    2e61:	90                   	nop
    2e62:	90                   	nop
    2e63:	90                   	nop
    2e64:	90                   	nop
    2e65:	90                   	nop
    2e66:	90                   	nop
    2e67:	90                   	nop
    2e68:	90                   	nop
    2e69:	90                   	nop
    2e6a:	90                   	nop
    2e6b:	90                   	nop
    2e6c:	90                   	nop
    2e6d:	90                   	nop
    2e6e:	90                   	nop
    2e6f:	90                   	nop
    2e70:	90                   	nop
    2e71:	90                   	nop
    2e72:	90                   	nop
    2e73:	90                   	nop
    2e74:	90                   	nop
    2e75:	90                   	nop
    2e76:	90                   	nop
    2e77:	90                   	nop
    2e78:	90                   	nop
    2e79:	90                   	nop
    2e7a:	90                   	nop
    2e7b:	90                   	nop
    2e7c:	90                   	nop
    2e7d:	90                   	nop
    2e7e:	90                   	nop
    2e7f:	90                   	nop
    2e80:	90                   	nop
    2e81:	90                   	nop
    2e82:	90                   	nop
    2e83:	90                   	nop
    2e84:	90                   	nop
    2e85:	90                   	nop
    2e86:	90                   	nop
    2e87:	90                   	nop
    2e88:	90                   	nop
    2e89:	90                   	nop
    2e8a:	90                   	nop
    2e8b:	90                   	nop
    2e8c:	90                   	nop
    2e8d:	90                   	nop
    2e8e:	90                   	nop
    2e8f:	90                   	nop
    2e90:	90                   	nop
    2e91:	90                   	nop
    2e92:	90                   	nop
    2e93:	90                   	nop
    2e94:	90                   	nop
    2e95:	90                   	nop
    2e96:	90                   	nop
    2e97:	90                   	nop
    2e98:	90                   	nop
    2e99:	90                   	nop
    2e9a:	90                   	nop
    2e9b:	90                   	nop
    2e9c:	90                   	nop
    2e9d:	90                   	nop
    2e9e:	90                   	nop
    2e9f:	90                   	nop
    2ea0:	48 83 c4 10          	add    rsp,0x10
    2ea4:	5b                   	pop    rbx
    2ea5:	c3                   	ret
    2ea6:	66 2e 0f 1f 84 00 00 	cs nop WORD PTR [rax+rax*1+0x0]
    2ead:	00 00 00 
    2eb0:	0f ae 3d 29 7b 00 00 	clflush BYTE PTR [rip+0x7b29]        # a9e0 <tmp_reg6>
    2eb7:	e9 19 fe ff ff       	jmp    2cd5 <_Z8xor_gatePhS_S_j+0x1c5>
    2ebc:	0f 1f 40 00          	nop    DWORD PTR [rax+0x0]
    2ec0:	0f ae 3d 19 83 00 00 	clflush BYTE PTR [rip+0x8319]        # b1e0 <tmp_reg5>
    2ec7:	e9 f9 fd ff ff       	jmp    2cc5 <_Z8xor_gatePhS_S_j+0x1b5>
    2ecc:	0f 1f 40 00          	nop    DWORD PTR [rax+0x0]
    2ed0:	0f ae 3d 09 5b 00 00 	clflush BYTE PTR [rip+0x5b09]        # 89e0 <tmp_reg10>
    2ed7:	e9 af fe ff ff       	jmp    2d8b <_Z8xor_gatePhS_S_j+0x27b>
    2edc:	0f 1f 40 00          	nop    DWORD PTR [rax+0x0]

0000000000002ee0 <_Z8mux_gatePhS_S_S_j>:
    2ee0:	f3 0f 1e fa          	endbr64
    2ee4:	53                   	push   rbx
    2ee5:	49 89 f9             	mov    r9,rdi
    2ee8:	49 89 d2             	mov    r10,rdx
    2eeb:	48 89 cf             	mov    rdi,rcx
    2eee:	c6 05 eb a2 00 00 00 	mov    BYTE PTR [rip+0xa2eb],0x0        # d1e0 <tmp_reg1>
    2ef5:	c6 05 e4 9a 00 00 00 	mov    BYTE PTR [rip+0x9ae4],0x0        # c9e0 <tmp_reg2>
    2efc:	c6 05 dd 92 00 00 00 	mov    BYTE PTR [rip+0x92dd],0x0        # c1e0 <tmp_reg3>
    2f03:	c6 05 d6 8a 00 00 00 	mov    BYTE PTR [rip+0x8ad6],0x0        # b9e0 <tmp_reg4>
    2f0a:	c6 05 cf 82 00 00 00 	mov    BYTE PTR [rip+0x82cf],0x0        # b1e0 <tmp_reg5>
    2f11:	c6 05 c8 7a 00 00 00 	mov    BYTE PTR [rip+0x7ac8],0x0        # a9e0 <tmp_reg6>
    2f18:	41 f6 c0 04          	test   r8b,0x4
    2f1c:	75 0e                	jne    2f2c <_Z8mux_gatePhS_S_S_j+0x4c>
    2f1e:	0f ae 3d bb a2 00 00 	clflush BYTE PTR [rip+0xa2bb]        # d1e0 <tmp_reg1>
    2f25:	0f ae 3d b4 9a 00 00 	clflush BYTE PTR [rip+0x9ab4]        # c9e0 <tmp_reg2>
    2f2c:	0f ae 3d ad 92 00 00 	clflush BYTE PTR [rip+0x92ad]        # c1e0 <tmp_reg3>
    2f33:	0f ae 3d a6 8a 00 00 	clflush BYTE PTR [rip+0x8aa6]        # b9e0 <tmp_reg4>
    2f3a:	0f ae 3d 9f 82 00 00 	clflush BYTE PTR [rip+0x829f]        # b1e0 <tmp_reg5>
    2f41:	0f ae 3d 98 7a 00 00 	clflush BYTE PTR [rip+0x7a98]        # a9e0 <tmp_reg6>
    2f48:	c7 44 24 f0 00 00 00 	mov    DWORD PTR [rsp-0x10],0x0
    2f4f:	00 
    2f50:	8b 44 24 f0          	mov    eax,DWORD PTR [rsp-0x10]
    2f54:	3d ff 03 00 00       	cmp    eax,0x3ff
    2f59:	7f 1b                	jg     2f76 <_Z8mux_gatePhS_S_S_j+0x96>
    2f5b:	0f 1f 44 00 00       	nop    DWORD PTR [rax+rax*1+0x0]
    2f60:	8b 44 24 f0          	mov    eax,DWORD PTR [rsp-0x10]
    2f64:	83 c0 01             	add    eax,0x1
    2f67:	89 44 24 f0          	mov    DWORD PTR [rsp-0x10],eax
    2f6b:	8b 44 24 f0          	mov    eax,DWORD PTR [rsp-0x10]
    2f6f:	3d ff 03 00 00       	cmp    eax,0x3ff
    2f74:	7e ea                	jle    2f60 <_Z8mux_gatePhS_S_S_j+0x80>
    2f76:	41 83 e0 01          	and    r8d,0x1
    2f7a:	0f 84 e0 05 00 00    	je     3560 <_Z8mux_gatePhS_S_S_j+0x680>
    2f80:	41 c6 01 00          	mov    BYTE PTR [r9],0x0
    2f84:	4c 8d 05 55 92 00 00 	lea    r8,[rip+0x9255]        # c1e0 <tmp_reg3>
    2f8b:	48 31 d2             	xor    rdx,rdx
    2f8e:	f6 f2                	div    dl
    2f90:	48 0f b6 0e          	movzx  rcx,BYTE PTR [rsi]
    2f94:	4c 01 d1             	add    rcx,r10
    2f97:	48 0f b6 11          	movzx  rdx,BYTE PTR [rcx]
    2f9b:	4c 01 c2             	add    rdx,r8
    2f9e:	8a 12                	mov    dl,BYTE PTR [rdx]
    2fa0:	90                   	nop
    2fa1:	90                   	nop
    2fa2:	90                   	nop
    2fa3:	90                   	nop
    2fa4:	90                   	nop
    2fa5:	90                   	nop
    2fa6:	90                   	nop
    2fa7:	90                   	nop
    2fa8:	90                   	nop
    2fa9:	90                   	nop
    2faa:	90                   	nop
    2fab:	90                   	nop
    2fac:	90                   	nop
    2fad:	90                   	nop
    2fae:	90                   	nop
    2faf:	90                   	nop
    2fb0:	90                   	nop
    2fb1:	90                   	nop
    2fb2:	90                   	nop
    2fb3:	90                   	nop
    2fb4:	90                   	nop
    2fb5:	90                   	nop
    2fb6:	90                   	nop
    2fb7:	90                   	nop
    2fb8:	90                   	nop
    2fb9:	90                   	nop
    2fba:	90                   	nop
    2fbb:	90                   	nop
    2fbc:	90                   	nop
    2fbd:	90                   	nop
    2fbe:	90                   	nop
    2fbf:	90                   	nop
    2fc0:	90                   	nop
    2fc1:	90                   	nop
    2fc2:	90                   	nop
    2fc3:	90                   	nop
    2fc4:	90                   	nop
    2fc5:	90                   	nop
    2fc6:	90                   	nop
    2fc7:	90                   	nop
    2fc8:	90                   	nop
    2fc9:	90                   	nop
    2fca:	90                   	nop
    2fcb:	90                   	nop
    2fcc:	90                   	nop
    2fcd:	90                   	nop
    2fce:	90                   	nop
    2fcf:	90                   	nop
    2fd0:	90                   	nop
    2fd1:	90                   	nop
    2fd2:	90                   	nop
    2fd3:	90                   	nop
    2fd4:	90                   	nop
    2fd5:	90                   	nop
    2fd6:	90                   	nop
    2fd7:	90                   	nop
    2fd8:	90                   	nop
    2fd9:	90                   	nop
    2fda:	90                   	nop
    2fdb:	90                   	nop
    2fdc:	90                   	nop
    2fdd:	90                   	nop
    2fde:	90                   	nop
    2fdf:	90                   	nop
    2fe0:	90                   	nop
    2fe1:	90                   	nop
    2fe2:	90                   	nop
    2fe3:	90                   	nop
    2fe4:	90                   	nop
    2fe5:	90                   	nop
    2fe6:	90                   	nop
    2fe7:	90                   	nop
    2fe8:	90                   	nop
    2fe9:	90                   	nop
    2fea:	90                   	nop
    2feb:	90                   	nop
    2fec:	90                   	nop
    2fed:	90                   	nop
    2fee:	90                   	nop
    2fef:	90                   	nop
    2ff0:	90                   	nop
    2ff1:	90                   	nop
    2ff2:	90                   	nop
    2ff3:	90                   	nop
    2ff4:	90                   	nop
    2ff5:	90                   	nop
    2ff6:	90                   	nop
    2ff7:	90                   	nop
    2ff8:	90                   	nop
    2ff9:	90                   	nop
    2ffa:	90                   	nop
    2ffb:	90                   	nop
    2ffc:	90                   	nop
    2ffd:	90                   	nop
    2ffe:	90                   	nop
    2fff:	90                   	nop
    3000:	90                   	nop
    3001:	90                   	nop
    3002:	90                   	nop
    3003:	90                   	nop
    3004:	90                   	nop
    3005:	90                   	nop
    3006:	90                   	nop
    3007:	90                   	nop
    3008:	90                   	nop
    3009:	90                   	nop
    300a:	90                   	nop
    300b:	90                   	nop
    300c:	90                   	nop
    300d:	90                   	nop
    300e:	90                   	nop
    300f:	90                   	nop
    3010:	90                   	nop
    3011:	90                   	nop
    3012:	90                   	nop
    3013:	90                   	nop
    3014:	90                   	nop
    3015:	90                   	nop
    3016:	90                   	nop
    3017:	90                   	nop
    3018:	90                   	nop
    3019:	90                   	nop
    301a:	90                   	nop
    301b:	90                   	nop
    301c:	90                   	nop
    301d:	90                   	nop
    301e:	90                   	nop
    301f:	90                   	nop
    3020:	90                   	nop
    3021:	90                   	nop
    3022:	90                   	nop
    3023:	90                   	nop
    3024:	90                   	nop
    3025:	90                   	nop
    3026:	90                   	nop
    3027:	90                   	nop
    3028:	90                   	nop
    3029:	90                   	nop
    302a:	90                   	nop
    302b:	90                   	nop
    302c:	90                   	nop
    302d:	90                   	nop
    302e:	90                   	nop
    302f:	90                   	nop
    3030:	90                   	nop
    3031:	90                   	nop
    3032:	90                   	nop
    3033:	90                   	nop
    3034:	90                   	nop
    3035:	90                   	nop
    3036:	90                   	nop
    3037:	90                   	nop
    3038:	90                   	nop
    3039:	90                   	nop
    303a:	90                   	nop
    303b:	90                   	nop
    303c:	90                   	nop
    303d:	90                   	nop
    303e:	90                   	nop
    303f:	90                   	nop
    3040:	90                   	nop
    3041:	90                   	nop
    3042:	90                   	nop
    3043:	90                   	nop
    3044:	90                   	nop
    3045:	90                   	nop
    3046:	90                   	nop
    3047:	90                   	nop
    3048:	90                   	nop
    3049:	90                   	nop
    304a:	90                   	nop
    304b:	90                   	nop
    304c:	90                   	nop
    304d:	90                   	nop
    304e:	90                   	nop
    304f:	90                   	nop
    3050:	90                   	nop
    3051:	90                   	nop
    3052:	90                   	nop
    3053:	90                   	nop
    3054:	90                   	nop
    3055:	90                   	nop
    3056:	90                   	nop
    3057:	90                   	nop
    3058:	90                   	nop
    3059:	90                   	nop
    305a:	90                   	nop
    305b:	90                   	nop
    305c:	90                   	nop
    305d:	90                   	nop
    305e:	90                   	nop
    305f:	90                   	nop
    3060:	90                   	nop
    3061:	90                   	nop
    3062:	90                   	nop
    3063:	90                   	nop
    3064:	90                   	nop
    3065:	90                   	nop
    3066:	90                   	nop
    3067:	90                   	nop
    3068:	90                   	nop
    3069:	90                   	nop
    306a:	90                   	nop
    306b:	90                   	nop
    306c:	90                   	nop
    306d:	90                   	nop
    306e:	90                   	nop
    306f:	90                   	nop
    3070:	90                   	nop
    3071:	90                   	nop
    3072:	90                   	nop
    3073:	90                   	nop
    3074:	90                   	nop
    3075:	90                   	nop
    3076:	90                   	nop
    3077:	90                   	nop
    3078:	90                   	nop
    3079:	90                   	nop
    307a:	90                   	nop
    307b:	90                   	nop
    307c:	90                   	nop
    307d:	90                   	nop
    307e:	90                   	nop
    307f:	90                   	nop
    3080:	90                   	nop
    3081:	90                   	nop
    3082:	90                   	nop
    3083:	90                   	nop
    3084:	90                   	nop
    3085:	90                   	nop
    3086:	90                   	nop
    3087:	90                   	nop
    3088:	90                   	nop
    3089:	90                   	nop
    308a:	90                   	nop
    308b:	90                   	nop
    308c:	90                   	nop
    308d:	90                   	nop
    308e:	90                   	nop
    308f:	90                   	nop
    3090:	90                   	nop
    3091:	90                   	nop
    3092:	90                   	nop
    3093:	90                   	nop
    3094:	90                   	nop
    3095:	90                   	nop
    3096:	90                   	nop
    3097:	90                   	nop
    3098:	90                   	nop
    3099:	90                   	nop
    309a:	90                   	nop
    309b:	90                   	nop
    309c:	90                   	nop
    309d:	90                   	nop
    309e:	90                   	nop
    309f:	90                   	nop
    30a0:	4c 8d 1d 39 89 00 00 	lea    r11,[rip+0x8939]        # b9e0 <tmp_reg4>
    30a7:	48 8d 35 32 a1 00 00 	lea    rsi,[rip+0xa132]        # d1e0 <tmp_reg1>
    30ae:	4c 8d 15 2b 81 00 00 	lea    r10,[rip+0x812b]        # b1e0 <tmp_reg5>
    30b5:	48 8d 1d 24 99 00 00 	lea    rbx,[rip+0x9924]        # c9e0 <tmp_reg2>
    30bc:	48 0f b6 16          	movzx  rdx,BYTE PTR [rsi]
    30c0:	48 01 da             	add    rdx,rbx
    30c3:	48 0f b6 12          	movzx  rdx,BYTE PTR [rdx]
    30c7:	f6 f2                	div    dl
    30c9:	49 0f b6 0a          	movzx  rcx,BYTE PTR [r10]
    30cd:	4c 01 d9             	add    rcx,r11
    30d0:	8a 11                	mov    dl,BYTE PTR [rcx]
    30d2:	90                   	nop
    30d3:	90                   	nop
    30d4:	90                   	nop
    30d5:	90                   	nop
    30d6:	90                   	nop
    30d7:	90                   	nop
    30d8:	90                   	nop
    30d9:	90                   	nop
    30da:	90                   	nop
    30db:	90                   	nop
    30dc:	90                   	nop
    30dd:	90                   	nop
    30de:	90                   	nop
    30df:	90                   	nop
    30e0:	90                   	nop
    30e1:	90                   	nop
    30e2:	90                   	nop
    30e3:	90                   	nop
    30e4:	90                   	nop
    30e5:	90                   	nop
    30e6:	90                   	nop
    30e7:	90                   	nop
    30e8:	90                   	nop
    30e9:	90                   	nop
    30ea:	90                   	nop
    30eb:	90                   	nop
    30ec:	90                   	nop
    30ed:	90                   	nop
    30ee:	90                   	nop
    30ef:	90                   	nop
    30f0:	90                   	nop
    30f1:	90                   	nop
    30f2:	90                   	nop
    30f3:	90                   	nop
    30f4:	90                   	nop
    30f5:	90                   	nop
    30f6:	90                   	nop
    30f7:	90                   	nop
    30f8:	90                   	nop
    30f9:	90                   	nop
    30fa:	90                   	nop
    30fb:	90                   	nop
    30fc:	90                   	nop
    30fd:	90                   	nop
    30fe:	90                   	nop
    30ff:	90                   	nop
    3100:	90                   	nop
    3101:	90                   	nop
    3102:	90                   	nop
    3103:	90                   	nop
    3104:	90                   	nop
    3105:	90                   	nop
    3106:	90                   	nop
    3107:	90                   	nop
    3108:	90                   	nop
    3109:	90                   	nop
    310a:	90                   	nop
    310b:	90                   	nop
    310c:	90                   	nop
    310d:	90                   	nop
    310e:	90                   	nop
    310f:	90                   	nop
    3110:	90                   	nop
    3111:	90                   	nop
    3112:	90                   	nop
    3113:	90                   	nop
    3114:	90                   	nop
    3115:	90                   	nop
    3116:	90                   	nop
    3117:	90                   	nop
    3118:	90                   	nop
    3119:	90                   	nop
    311a:	90                   	nop
    311b:	90                   	nop
    311c:	90                   	nop
    311d:	90                   	nop
    311e:	90                   	nop
    311f:	90                   	nop
    3120:	90                   	nop
    3121:	90                   	nop
    3122:	90                   	nop
    3123:	90                   	nop
    3124:	90                   	nop
    3125:	90                   	nop
    3126:	90                   	nop
    3127:	90                   	nop
    3128:	90                   	nop
    3129:	90                   	nop
    312a:	90                   	nop
    312b:	90                   	nop
    312c:	90                   	nop
    312d:	90                   	nop
    312e:	90                   	nop
    312f:	90                   	nop
    3130:	90                   	nop
    3131:	90                   	nop
    3132:	90                   	nop
    3133:	90                   	nop
    3134:	90                   	nop
    3135:	90                   	nop
    3136:	90                   	nop
    3137:	90                   	nop
    3138:	90                   	nop
    3139:	90                   	nop
    313a:	90                   	nop
    313b:	90                   	nop
    313c:	90                   	nop
    313d:	90                   	nop
    313e:	90                   	nop
    313f:	90                   	nop
    3140:	90                   	nop
    3141:	90                   	nop
    3142:	90                   	nop
    3143:	90                   	nop
    3144:	90                   	nop
    3145:	90                   	nop
    3146:	90                   	nop
    3147:	90                   	nop
    3148:	90                   	nop
    3149:	90                   	nop
    314a:	90                   	nop
    314b:	90                   	nop
    314c:	90                   	nop
    314d:	90                   	nop
    314e:	90                   	nop
    314f:	90                   	nop
    3150:	90                   	nop
    3151:	90                   	nop
    3152:	90                   	nop
    3153:	90                   	nop
    3154:	90                   	nop
    3155:	90                   	nop
    3156:	90                   	nop
    3157:	90                   	nop
    3158:	90                   	nop
    3159:	90                   	nop
    315a:	90                   	nop
    315b:	90                   	nop
    315c:	90                   	nop
    315d:	90                   	nop
    315e:	90                   	nop
    315f:	90                   	nop
    3160:	90                   	nop
    3161:	90                   	nop
    3162:	90                   	nop
    3163:	90                   	nop
    3164:	90                   	nop
    3165:	90                   	nop
    3166:	90                   	nop
    3167:	90                   	nop
    3168:	90                   	nop
    3169:	90                   	nop
    316a:	90                   	nop
    316b:	90                   	nop
    316c:	90                   	nop
    316d:	90                   	nop
    316e:	90                   	nop
    316f:	90                   	nop
    3170:	90                   	nop
    3171:	90                   	nop
    3172:	90                   	nop
    3173:	90                   	nop
    3174:	90                   	nop
    3175:	90                   	nop
    3176:	90                   	nop
    3177:	90                   	nop
    3178:	90                   	nop
    3179:	90                   	nop
    317a:	90                   	nop
    317b:	90                   	nop
    317c:	90                   	nop
    317d:	90                   	nop
    317e:	90                   	nop
    317f:	90                   	nop
    3180:	90                   	nop
    3181:	90                   	nop
    3182:	90                   	nop
    3183:	90                   	nop
    3184:	90                   	nop
    3185:	90                   	nop
    3186:	90                   	nop
    3187:	90                   	nop
    3188:	90                   	nop
    3189:	90                   	nop
    318a:	90                   	nop
    318b:	90                   	nop
    318c:	90                   	nop
    318d:	90                   	nop
    318e:	90                   	nop
    318f:	90                   	nop
    3190:	90                   	nop
    3191:	90                   	nop
    3192:	90                   	nop
    3193:	90                   	nop
    3194:	90                   	nop
    3195:	90                   	nop
    3196:	90                   	nop
    3197:	90                   	nop
    3198:	90                   	nop
    3199:	90                   	nop
    319a:	90                   	nop
    319b:	90                   	nop
    319c:	90                   	nop
    319d:	90                   	nop
    319e:	90                   	nop
    319f:	90                   	nop
    31a0:	90                   	nop
    31a1:	90                   	nop
    31a2:	90                   	nop
    31a3:	90                   	nop
    31a4:	90                   	nop
    31a5:	90                   	nop
    31a6:	90                   	nop
    31a7:	90                   	nop
    31a8:	90                   	nop
    31a9:	90                   	nop
    31aa:	90                   	nop
    31ab:	90                   	nop
    31ac:	90                   	nop
    31ad:	90                   	nop
    31ae:	90                   	nop
    31af:	90                   	nop
    31b0:	90                   	nop
    31b1:	90                   	nop
    31b2:	90                   	nop
    31b3:	90                   	nop
    31b4:	90                   	nop
    31b5:	90                   	nop
    31b6:	90                   	nop
    31b7:	90                   	nop
    31b8:	90                   	nop
    31b9:	90                   	nop
    31ba:	90                   	nop
    31bb:	90                   	nop
    31bc:	90                   	nop
    31bd:	90                   	nop
    31be:	90                   	nop
    31bf:	90                   	nop
    31c0:	90                   	nop
    31c1:	90                   	nop
    31c2:	90                   	nop
    31c3:	90                   	nop
    31c4:	90                   	nop
    31c5:	90                   	nop
    31c6:	90                   	nop
    31c7:	90                   	nop
    31c8:	90                   	nop
    31c9:	90                   	nop
    31ca:	90                   	nop
    31cb:	90                   	nop
    31cc:	90                   	nop
    31cd:	90                   	nop
    31ce:	90                   	nop
    31cf:	90                   	nop
    31d0:	90                   	nop
    31d1:	90                   	nop
    31d2:	c7 44 24 f4 00 00 00 	mov    DWORD PTR [rsp-0xc],0x0
    31d9:	00 
    31da:	8b 44 24 f4          	mov    eax,DWORD PTR [rsp-0xc]
    31de:	3d ff 03 00 00       	cmp    eax,0x3ff
    31e3:	7f 19                	jg     31fe <_Z8mux_gatePhS_S_S_j+0x31e>
    31e5:	0f 1f 00             	nop    DWORD PTR [rax]
    31e8:	8b 44 24 f4          	mov    eax,DWORD PTR [rsp-0xc]
    31ec:	83 c0 01             	add    eax,0x1
    31ef:	89 44 24 f4          	mov    DWORD PTR [rsp-0xc],eax
    31f3:	8b 44 24 f4          	mov    eax,DWORD PTR [rsp-0xc]
    31f7:	3d ff 03 00 00       	cmp    eax,0x3ff
    31fc:	7e ea                	jle    31e8 <_Z8mux_gatePhS_S_S_j+0x308>
    31fe:	0f 01 f9             	rdtscp
    3201:	48 c1 e2 20          	shl    rdx,0x20
    3205:	48 89 d6             	mov    rsi,rdx
    3208:	09 c6                	or     esi,eax
    320a:	8a 05 d0 87 00 00    	mov    al,BYTE PTR [rip+0x87d0]        # b9e0 <tmp_reg4>
    3210:	0f 01 f9             	rdtscp
    3213:	48 c1 e2 20          	shl    rdx,0x20
    3217:	09 c2                	or     edx,eax
    3219:	48 29 f2             	sub    rdx,rsi
    321c:	49 89 d2             	mov    r10,rdx
    321f:	49 81 fa 96 00 00 00 	cmp    r10,0x96
    3226:	0f 87 24 03 00 00    	ja     3550 <_Z8mux_gatePhS_S_S_j+0x670>
    322c:	c6 05 ad 87 00 00 00 	mov    BYTE PTR [rip+0x87ad],0x0        # b9e0 <tmp_reg4>
    3233:	0f 01 f9             	rdtscp
    3236:	48 c1 e2 20          	shl    rdx,0x20
    323a:	48 89 d6             	mov    rsi,rdx
    323d:	09 c6                	or     esi,eax
    323f:	8a 05 9b 8f 00 00    	mov    al,BYTE PTR [rip+0x8f9b]        # c1e0 <tmp_reg3>
    3245:	0f 01 f9             	rdtscp
    3248:	48 c1 e2 20          	shl    rdx,0x20
    324c:	09 c2                	or     edx,eax
    324e:	48 29 f2             	sub    rdx,rsi
    3251:	48 89 d3             	mov    rbx,rdx
    3254:	4c 8d 15 85 77 00 00 	lea    r10,[rip+0x7785]        # a9e0 <tmp_reg6>
    325b:	48 31 d2             	xor    rdx,rdx
    325e:	f6 f2                	div    dl
    3260:	49 0f b6 09          	movzx  rcx,BYTE PTR [r9]
    3264:	4c 01 d9             	add    rcx,r11
    3267:	48 0f b6 11          	movzx  rdx,BYTE PTR [rcx]
    326b:	4c 01 d2             	add    rdx,r10
    326e:	8a 12                	mov    dl,BYTE PTR [rdx]
    3270:	90                   	nop
    3271:	90                   	nop
    3272:	90                   	nop
    3273:	90                   	nop
    3274:	90                   	nop
    3275:	90                   	nop
    3276:	90                   	nop
    3277:	90                   	nop
    3278:	90                   	nop
    3279:	90                   	nop
    327a:	90                   	nop
    327b:	90                   	nop
    327c:	90                   	nop
    327d:	90                   	nop
    327e:	90                   	nop
    327f:	90                   	nop
    3280:	90                   	nop
    3281:	90                   	nop
    3282:	90                   	nop
    3283:	90                   	nop
    3284:	90                   	nop
    3285:	90                   	nop
    3286:	90                   	nop
    3287:	90                   	nop
    3288:	90                   	nop
    3289:	90                   	nop
    328a:	90                   	nop
    328b:	90                   	nop
    328c:	90                   	nop
    328d:	90                   	nop
    328e:	90                   	nop
    328f:	90                   	nop
    3290:	90                   	nop
    3291:	90                   	nop
    3292:	90                   	nop
    3293:	90                   	nop
    3294:	90                   	nop
    3295:	90                   	nop
    3296:	90                   	nop
    3297:	90                   	nop
    3298:	90                   	nop
    3299:	90                   	nop
    329a:	90                   	nop
    329b:	90                   	nop
    329c:	90                   	nop
    329d:	90                   	nop
    329e:	90                   	nop
    329f:	90                   	nop
    32a0:	90                   	nop
    32a1:	90                   	nop
    32a2:	90                   	nop
    32a3:	90                   	nop
    32a4:	90                   	nop
    32a5:	90                   	nop
    32a6:	90                   	nop
    32a7:	90                   	nop
    32a8:	90                   	nop
    32a9:	90                   	nop
    32aa:	90                   	nop
    32ab:	90                   	nop
    32ac:	90                   	nop
    32ad:	90                   	nop
    32ae:	90                   	nop
    32af:	90                   	nop
    32b0:	90                   	nop
    32b1:	90                   	nop
    32b2:	90                   	nop
    32b3:	90                   	nop
    32b4:	90                   	nop
    32b5:	90                   	nop
    32b6:	90                   	nop
    32b7:	90                   	nop
    32b8:	90                   	nop
    32b9:	90                   	nop
    32ba:	90                   	nop
    32bb:	90                   	nop
    32bc:	90                   	nop
    32bd:	90                   	nop
    32be:	90                   	nop
    32bf:	90                   	nop
    32c0:	90                   	nop
    32c1:	90                   	nop
    32c2:	90                   	nop
    32c3:	90                   	nop
    32c4:	90                   	nop
    32c5:	90                   	nop
    32c6:	90                   	nop
    32c7:	90                   	nop
    32c8:	90                   	nop
    32c9:	90                   	nop
    32ca:	90                   	nop
    32cb:	90                   	nop
    32cc:	90                   	nop
    32cd:	90                   	nop
    32ce:	90                   	nop
    32cf:	90                   	nop
    32d0:	90                   	nop
    32d1:	90                   	nop
    32d2:	90                   	nop
    32d3:	90                   	nop
    32d4:	90                   	nop
    32d5:	90                   	nop
    32d6:	90                   	nop
    32d7:	90                   	nop
    32d8:	90                   	nop
    32d9:	90                   	nop
    32da:	90                   	nop
    32db:	90                   	nop
    32dc:	90                   	nop
    32dd:	90                   	nop
    32de:	90                   	nop
    32df:	90                   	nop
    32e0:	90                   	nop
    32e1:	90                   	nop
    32e2:	90                   	nop
    32e3:	90                   	nop
    32e4:	90                   	nop
    32e5:	90                   	nop
    32e6:	90                   	nop
    32e7:	90                   	nop
    32e8:	90                   	nop
    32e9:	90                   	nop
    32ea:	90                   	nop
    32eb:	90                   	nop
    32ec:	90                   	nop
    32ed:	90                   	nop
    32ee:	90                   	nop
    32ef:	90                   	nop
    32f0:	90                   	nop
    32f1:	90                   	nop
    32f2:	90                   	nop
    32f3:	90                   	nop
    32f4:	90                   	nop
    32f5:	90                   	nop
    32f6:	90                   	nop
    32f7:	90                   	nop
    32f8:	90                   	nop
    32f9:	90                   	nop
    32fa:	90                   	nop
    32fb:	90                   	nop
    32fc:	90                   	nop
    32fd:	90                   	nop
    32fe:	90                   	nop
    32ff:	90                   	nop
    3300:	90                   	nop
    3301:	90                   	nop
    3302:	90                   	nop
    3303:	90                   	nop
    3304:	90                   	nop
    3305:	90                   	nop
    3306:	90                   	nop
    3307:	90                   	nop
    3308:	90                   	nop
    3309:	90                   	nop
    330a:	90                   	nop
    330b:	90                   	nop
    330c:	90                   	nop
    330d:	90                   	nop
    330e:	90                   	nop
    330f:	90                   	nop
    3310:	90                   	nop
    3311:	90                   	nop
    3312:	90                   	nop
    3313:	90                   	nop
    3314:	90                   	nop
    3315:	90                   	nop
    3316:	90                   	nop
    3317:	90                   	nop
    3318:	90                   	nop
    3319:	90                   	nop
    331a:	90                   	nop
    331b:	90                   	nop
    331c:	90                   	nop
    331d:	90                   	nop
    331e:	90                   	nop
    331f:	90                   	nop
    3320:	90                   	nop
    3321:	90                   	nop
    3322:	90                   	nop
    3323:	90                   	nop
    3324:	90                   	nop
    3325:	90                   	nop
    3326:	90                   	nop
    3327:	90                   	nop
    3328:	90                   	nop
    3329:	90                   	nop
    332a:	90                   	nop
    332b:	90                   	nop
    332c:	90                   	nop
    332d:	90                   	nop
    332e:	90                   	nop
    332f:	90                   	nop
    3330:	90                   	nop
    3331:	90                   	nop
    3332:	90                   	nop
    3333:	90                   	nop
    3334:	90                   	nop
    3335:	90                   	nop
    3336:	90                   	nop
    3337:	90                   	nop
    3338:	90                   	nop
    3339:	90                   	nop
    333a:	90                   	nop
    333b:	90                   	nop
    333c:	90                   	nop
    333d:	90                   	nop
    333e:	90                   	nop
    333f:	90                   	nop
    3340:	90                   	nop
    3341:	90                   	nop
    3342:	90                   	nop
    3343:	90                   	nop
    3344:	90                   	nop
    3345:	90                   	nop
    3346:	90                   	nop
    3347:	90                   	nop
    3348:	90                   	nop
    3349:	90                   	nop
    334a:	90                   	nop
    334b:	90                   	nop
    334c:	90                   	nop
    334d:	90                   	nop
    334e:	90                   	nop
    334f:	90                   	nop
    3350:	90                   	nop
    3351:	90                   	nop
    3352:	90                   	nop
    3353:	90                   	nop
    3354:	90                   	nop
    3355:	90                   	nop
    3356:	90                   	nop
    3357:	90                   	nop
    3358:	90                   	nop
    3359:	90                   	nop
    335a:	90                   	nop
    335b:	90                   	nop
    335c:	90                   	nop
    335d:	90                   	nop
    335e:	90                   	nop
    335f:	90                   	nop
    3360:	90                   	nop
    3361:	90                   	nop
    3362:	90                   	nop
    3363:	90                   	nop
    3364:	90                   	nop
    3365:	90                   	nop
    3366:	90                   	nop
    3367:	90                   	nop
    3368:	90                   	nop
    3369:	90                   	nop
    336a:	90                   	nop
    336b:	90                   	nop
    336c:	90                   	nop
    336d:	90                   	nop
    336e:	90                   	nop
    336f:	90                   	nop
    3370:	c7 44 24 f8 00 00 00 	mov    DWORD PTR [rsp-0x8],0x0
    3377:	00 
    3378:	8b 44 24 f8          	mov    eax,DWORD PTR [rsp-0x8]
    337c:	3d ff 03 00 00       	cmp    eax,0x3ff
    3381:	7f 1b                	jg     339e <_Z8mux_gatePhS_S_S_j+0x4be>
    3383:	0f 1f 44 00 00       	nop    DWORD PTR [rax+rax*1+0x0]
    3388:	8b 44 24 f8          	mov    eax,DWORD PTR [rsp-0x8]
    338c:	83 c0 01             	add    eax,0x1
    338f:	89 44 24 f8          	mov    DWORD PTR [rsp-0x8],eax
    3393:	8b 44 24 f8          	mov    eax,DWORD PTR [rsp-0x8]
    3397:	3d ff 03 00 00       	cmp    eax,0x3ff
    339c:	7e ea                	jle    3388 <_Z8mux_gatePhS_S_S_j+0x4a8>
    339e:	0f 01 f9             	rdtscp
    33a1:	48 c1 e2 20          	shl    rdx,0x20
    33a5:	48 89 d6             	mov    rsi,rdx
    33a8:	09 c6                	or     esi,eax
    33aa:	8a 05 30 76 00 00    	mov    al,BYTE PTR [rip+0x7630]        # a9e0 <tmp_reg6>
    33b0:	0f 01 f9             	rdtscp
    33b3:	48 c1 e2 20          	shl    rdx,0x20
    33b7:	09 c2                	or     edx,eax
    33b9:	48 29 f2             	sub    rdx,rsi
    33bc:	49 89 d1             	mov    r9,rdx
    33bf:	49 81 f9 96 00 00 00 	cmp    r9,0x96
    33c6:	0f 87 74 01 00 00    	ja     3540 <_Z8mux_gatePhS_S_S_j+0x660>
    33cc:	c6 05 0d 76 00 00 00 	mov    BYTE PTR [rip+0x760d],0x0        # a9e0 <tmp_reg6>
    33d3:	48 81 fb 96 00 00 00 	cmp    rbx,0x96
    33da:	0f 87 50 01 00 00    	ja     3530 <_Z8mux_gatePhS_S_S_j+0x650>
    33e0:	c6 05 f9 8d 00 00 00 	mov    BYTE PTR [rip+0x8df9],0x0        # c1e0 <tmp_reg3>
    33e7:	c7 44 24 fc 00 00 00 	mov    DWORD PTR [rsp-0x4],0x0
    33ee:	00 
    33ef:	8b 44 24 fc          	mov    eax,DWORD PTR [rsp-0x4]
    33f3:	3d ff 03 00 00       	cmp    eax,0x3ff
    33f8:	7f 1c                	jg     3416 <_Z8mux_gatePhS_S_S_j+0x536>
    33fa:	66 0f 1f 44 00 00    	nop    WORD PTR [rax+rax*1+0x0]
    3400:	8b 44 24 fc          	mov    eax,DWORD PTR [rsp-0x4]
    3404:	83 c0 01             	add    eax,0x1
    3407:	89 44 24 fc          	mov    DWORD PTR [rsp-0x4],eax
    340b:	8b 44 24 fc          	mov    eax,DWORD PTR [rsp-0x4]
    340f:	3d ff 03 00 00       	cmp    eax,0x3ff
    3414:	7e ea                	jle    3400 <_Z8mux_gatePhS_S_S_j+0x520>
    3416:	48 31 d2             	xor    rdx,rdx
    3419:	f6 f2                	div    dl
    341b:	49 0f b6 08          	movzx  rcx,BYTE PTR [r8]
    341f:	48 01 f9             	add    rcx,rdi
    3422:	8a 01                	mov    al,BYTE PTR [rcx]
    3424:	49 0f b6 0a          	movzx  rcx,BYTE PTR [r10]
    3428:	48 01 f9             	add    rcx,rdi
    342b:	8a 11                	mov    dl,BYTE PTR [rcx]
    342d:	90                   	nop
    342e:	90                   	nop
    342f:	90                   	nop
    3430:	90                   	nop
    3431:	90                   	nop
    3432:	90                   	nop
    3433:	90                   	nop
    3434:	90                   	nop
    3435:	90                   	nop
    3436:	90                   	nop
    3437:	90                   	nop
    3438:	90                   	nop
    3439:	90                   	nop
    343a:	90                   	nop
    343b:	90                   	nop
    343c:	90                   	nop
    343d:	90                   	nop
    343e:	90                   	nop
    343f:	90                   	nop
    3440:	90                   	nop
    3441:	90                   	nop
    3442:	90                   	nop
    3443:	90                   	nop
    3444:	90                   	nop
    3445:	90                   	nop
    3446:	90                   	nop
    3447:	90                   	nop
    3448:	90                   	nop
    3449:	90                   	nop
    344a:	90                   	nop
    344b:	90                   	nop
    344c:	90                   	nop
    344d:	90                   	nop
    344e:	90                   	nop
    344f:	90                   	nop
    3450:	90                   	nop
    3451:	90                   	nop
    3452:	90                   	nop
    3453:	90                   	nop
    3454:	90                   	nop
    3455:	90                   	nop
    3456:	90                   	nop
    3457:	90                   	nop
    3458:	90                   	nop
    3459:	90                   	nop
    345a:	90                   	nop
    345b:	90                   	nop
    345c:	90                   	nop
    345d:	90                   	nop
    345e:	90                   	nop
    345f:	90                   	nop
    3460:	90                   	nop
    3461:	90                   	nop
    3462:	90                   	nop
    3463:	90                   	nop
    3464:	90                   	nop
    3465:	90                   	nop
    3466:	90                   	nop
    3467:	90                   	nop
    3468:	90                   	nop
    3469:	90                   	nop
    346a:	90                   	nop
    346b:	90                   	nop
    346c:	90                   	nop
    346d:	90                   	nop
    346e:	90                   	nop
    346f:	90                   	nop
    3470:	90                   	nop
    3471:	90                   	nop
    3472:	90                   	nop
    3473:	90                   	nop
    3474:	90                   	nop
    3475:	90                   	nop
    3476:	90                   	nop
    3477:	90                   	nop
    3478:	90                   	nop
    3479:	90                   	nop
    347a:	90                   	nop
    347b:	90                   	nop
    347c:	90                   	nop
    347d:	90                   	nop
    347e:	90                   	nop
    347f:	90                   	nop
    3480:	90                   	nop
    3481:	90                   	nop
    3482:	90                   	nop
    3483:	90                   	nop
    3484:	90                   	nop
    3485:	90                   	nop
    3486:	90                   	nop
    3487:	90                   	nop
    3488:	90                   	nop
    3489:	90                   	nop
    348a:	90                   	nop
    348b:	90                   	nop
    348c:	90                   	nop
    348d:	90                   	nop
    348e:	90                   	nop
    348f:	90                   	nop
    3490:	90                   	nop
    3491:	90                   	nop
    3492:	90                   	nop
    3493:	90                   	nop
    3494:	90                   	nop
    3495:	90                   	nop
    3496:	90                   	nop
    3497:	90                   	nop
    3498:	90                   	nop
    3499:	90                   	nop
    349a:	90                   	nop
    349b:	90                   	nop
    349c:	90                   	nop
    349d:	90                   	nop
    349e:	90                   	nop
    349f:	90                   	nop
    34a0:	90                   	nop
    34a1:	90                   	nop
    34a2:	90                   	nop
    34a3:	90                   	nop
    34a4:	90                   	nop
    34a5:	90                   	nop
    34a6:	90                   	nop
    34a7:	90                   	nop
    34a8:	90                   	nop
    34a9:	90                   	nop
    34aa:	90                   	nop
    34ab:	90                   	nop
    34ac:	90                   	nop
    34ad:	90                   	nop
    34ae:	90                   	nop
    34af:	90                   	nop
    34b0:	90                   	nop
    34b1:	90                   	nop
    34b2:	90                   	nop
    34b3:	90                   	nop
    34b4:	90                   	nop
    34b5:	90                   	nop
    34b6:	90                   	nop
    34b7:	90                   	nop
    34b8:	90                   	nop
    34b9:	90                   	nop
    34ba:	90                   	nop
    34bb:	90                   	nop
    34bc:	90                   	nop
    34bd:	90                   	nop
    34be:	90                   	nop
    34bf:	90                   	nop
    34c0:	90                   	nop
    34c1:	90                   	nop
    34c2:	90                   	nop
    34c3:	90                   	nop
    34c4:	90                   	nop
    34c5:	90                   	nop
    34c6:	90                   	nop
    34c7:	90                   	nop
    34c8:	90                   	nop
    34c9:	90                   	nop
    34ca:	90                   	nop
    34cb:	90                   	nop
    34cc:	90                   	nop
    34cd:	90                   	nop
    34ce:	90                   	nop
    34cf:	90                   	nop
    34d0:	90                   	nop
    34d1:	90                   	nop
    34d2:	90                   	nop
    34d3:	90                   	nop
    34d4:	90                   	nop
    34d5:	90                   	nop
    34d6:	90                   	nop
    34d7:	90                   	nop
    34d8:	90                   	nop
    34d9:	90                   	nop
    34da:	90                   	nop
    34db:	90                   	nop
    34dc:	90                   	nop
    34dd:	90                   	nop
    34de:	90                   	nop
    34df:	90                   	nop
    34e0:	90                   	nop
    34e1:	90                   	nop
    34e2:	90                   	nop
    34e3:	90                   	nop
    34e4:	90                   	nop
    34e5:	90                   	nop
    34e6:	90                   	nop
    34e7:	90                   	nop
    34e8:	90                   	nop
    34e9:	90                   	nop
    34ea:	90                   	nop
    34eb:	90                   	nop
    34ec:	90                   	nop
    34ed:	90                   	nop
    34ee:	90                   	nop
    34ef:	90                   	nop
    34f0:	90                   	nop
    34f1:	90                   	nop
    34f2:	90                   	nop
    34f3:	90                   	nop
    34f4:	90                   	nop
    34f5:	90                   	nop
    34f6:	90                   	nop
    34f7:	90                   	nop
    34f8:	90                   	nop
    34f9:	90                   	nop
    34fa:	90                   	nop
    34fb:	90                   	nop
    34fc:	90                   	nop
    34fd:	90                   	nop
    34fe:	90                   	nop
    34ff:	90                   	nop
    3500:	90                   	nop
    3501:	90                   	nop
    3502:	90                   	nop
    3503:	90                   	nop
    3504:	90                   	nop
    3505:	90                   	nop
    3506:	90                   	nop
    3507:	90                   	nop
    3508:	90                   	nop
    3509:	90                   	nop
    350a:	90                   	nop
    350b:	90                   	nop
    350c:	90                   	nop
    350d:	90                   	nop
    350e:	90                   	nop
    350f:	90                   	nop
    3510:	90                   	nop
    3511:	90                   	nop
    3512:	90                   	nop
    3513:	90                   	nop
    3514:	90                   	nop
    3515:	90                   	nop
    3516:	90                   	nop
    3517:	90                   	nop
    3518:	90                   	nop
    3519:	90                   	nop
    351a:	90                   	nop
    351b:	90                   	nop
    351c:	90                   	nop
    351d:	90                   	nop
    351e:	90                   	nop
    351f:	90                   	nop
    3520:	90                   	nop
    3521:	90                   	nop
    3522:	90                   	nop
    3523:	90                   	nop
    3524:	90                   	nop
    3525:	90                   	nop
    3526:	90                   	nop
    3527:	90                   	nop
    3528:	90                   	nop
    3529:	90                   	nop
    352a:	90                   	nop
    352b:	90                   	nop
    352c:	90                   	nop
    352d:	5b                   	pop    rbx
    352e:	c3                   	ret
    352f:	90                   	nop
    3530:	0f ae 3d a9 8c 00 00 	clflush BYTE PTR [rip+0x8ca9]        # c1e0 <tmp_reg3>
    3537:	e9 ab fe ff ff       	jmp    33e7 <_Z8mux_gatePhS_S_S_j+0x507>
    353c:	0f 1f 40 00          	nop    DWORD PTR [rax+0x0]
    3540:	0f ae 3d 99 74 00 00 	clflush BYTE PTR [rip+0x7499]        # a9e0 <tmp_reg6>
    3547:	e9 87 fe ff ff       	jmp    33d3 <_Z8mux_gatePhS_S_S_j+0x4f3>
    354c:	0f 1f 40 00          	nop    DWORD PTR [rax+0x0]
    3550:	0f ae 3d 89 84 00 00 	clflush BYTE PTR [rip+0x8489]        # b9e0 <tmp_reg4>
    3557:	e9 d7 fc ff ff       	jmp    3233 <_Z8mux_gatePhS_S_S_j+0x353>
    355c:	0f 1f 40 00          	nop    DWORD PTR [rax+0x0]
    3560:	41 0f ae 39          	clflush BYTE PTR [r9]
    3564:	e9 1b fa ff ff       	jmp    2f84 <_Z8mux_gatePhS_S_S_j+0xa4>

Disassembly of section .fini:

000000000000356c <_fini>:
    356c:	f3 0f 1e fa          	endbr64
    3570:	48 83 ec 08          	sub    rsp,0x8
    3574:	48 83 c4 08          	add    rsp,0x8
    3578:	c3                   	ret
